;--------------------------------------------------------
; File Created by SDCC : free open source ISO C Compiler
; Version 4.5.1 #15267 (MINGW64)
;--------------------------------------------------------
	.module main
	
;--------------------------------------------------------
; Public variables in this module
;--------------------------------------------------------
	.globl _main
	.globl _updatePlayerAnimation
	.globl _checkPlayerEnemy
	.globl _checkBulletEnemy
	.globl _updateEnemyAnimation
	.globl _updateJump
	.globl _jump
	.globl _updateBullets
	.globl _fireBullet
	.globl _setupBullets
	.globl _drawHearts
	.globl _playSound
	.globl _moveSprite4
	.globl _waitFrames
	.globl _set_sprite_data
	.globl _set_bkg_tiles
	.globl _set_bkg_data
	.globl _wait_vbl_done
	.globl _joypad
	.globl _currentEnemyFrame
	.globl _animCounter
	.globl _velocityY
	.globl _isJumping
	.globl _score
	.globl _lives
	.globl _enemyY
	.globl _enemyX
	.globl _playerY
	.globl _playerX
	.globl _tile
	.globl _bgmap
	.globl _heart
	.globl _Amogus
	.globl _GameSprites
	.globl _bullets
;--------------------------------------------------------
; special function registers
;--------------------------------------------------------
;--------------------------------------------------------
; ram data
;--------------------------------------------------------
	.area _DATA
_bullets::
	.ds 48
;--------------------------------------------------------
; ram data
;--------------------------------------------------------
	.area _INITIALIZED
_GameSprites::
	.ds 512
_Amogus::
	.ds 768
_heart::
	.ds 32
_bgmap::
	.ds 720
_tile::
	.ds 160
_playerX::
	.ds 1
_playerY::
	.ds 1
_enemyX::
	.ds 2
_enemyY::
	.ds 1
_lives::
	.ds 1
_score::
	.ds 2
_isJumping::
	.ds 1
_velocityY::
	.ds 1
_animCounter::
	.ds 1
_currentEnemyFrame::
	.ds 1
;--------------------------------------------------------
; absolute external ram data
;--------------------------------------------------------
	.area _DABS (ABS)
;--------------------------------------------------------
; global & static initialisations
;--------------------------------------------------------
	.area _HOME
	.area _GSINIT
	.area _GSFINAL
	.area _GSINIT
;--------------------------------------------------------
; Home
;--------------------------------------------------------
	.area _HOME
	.area _HOME
;--------------------------------------------------------
; code
;--------------------------------------------------------
	.area _CODE
;main.c:60: void waitFrames(UINT8 loops){
;	---------------------------------
; Function waitFrames
; ---------------------------------
_waitFrames::
	ld	c, a
;main.c:62: for(i = 0; i < loops; i++){
	ld	b, #0x00
00103$:
	ld	a, b
	sub	a, c
	ret	NC
;main.c:63: wait_vbl_done();
	call	_wait_vbl_done
;main.c:62: for(i = 0; i < loops; i++){
	inc	b
;main.c:65: }
	jr	00103$
;main.c:67: void moveSprite4(UINT8 sprite1, UINT8 sprite2, UINT8 sprite3, UINT8 sprite4, 
;	---------------------------------
; Function moveSprite4
; ---------------------------------
_moveSprite4::
	add	sp, #-4
	ldhl	sp,	#3
	ld	(hl-), a
	ld	(hl), e
;main.c:69: move_sprite(sprite1, x, y);
	ldhl	sp,	#10
	ld	a, (hl-)
	dec	hl
	ld	e, a
	ld	a, (hl)
	ldhl	sp,	#0
	ld	(hl), a
	ld	c, (hl)
;c:\gbdk\include\gb\gb.h:1973: OAM_item_t * itm = &shadow_OAM[nb];
	ldhl	sp,	#3
	ld	b, (hl)
	xor	a, a
	ld	l, b
	ld	h, a
	add	hl, hl
	add	hl, hl
	push	de
	ld	de, #_shadow_OAM
	add	hl, de
	pop	de
;c:\gbdk\include\gb\gb.h:1974: itm->y=y, itm->x=x;
	ld	a, e
	ld	(hl+), a
	ld	(hl), c
;main.c:70: move_sprite(sprite2, x + SPRITE_SIZE, y);
	ldhl	sp,	#8
	ld	a, (hl)
	add	a, #0x08
	ld	c, a
	ld	b, c
;c:\gbdk\include\gb\gb.h:1973: OAM_item_t * itm = &shadow_OAM[nb];
	ldhl	sp,	#2
	ld	d, (hl)
	xor	a, a
	ld	l, d
	ld	h, a
	add	hl, hl
	add	hl, hl
	push	de
	ld	de, #_shadow_OAM
	add	hl, de
	pop	de
;c:\gbdk\include\gb\gb.h:1974: itm->y=y, itm->x=x;
	ld	a, e
	ld	(hl+), a
	ld	(hl), b
;main.c:71: move_sprite(sprite3, x, y + SPRITE_SIZE);
	ld	a, e
	add	a, #0x08
	ld	b, a
	ldhl	sp,	#1
	ld	(hl), b
	ldhl	sp,	#6
;c:\gbdk\include\gb\gb.h:1973: OAM_item_t * itm = &shadow_OAM[nb];
	ld	l, (hl)
	ld	h, #0x00
	add	hl, hl
	add	hl, hl
	ld	de, #_shadow_OAM
	add	hl, de
	ld	e, l
	ld	d, h
;c:\gbdk\include\gb\gb.h:1974: itm->y=y, itm->x=x;
	ldhl	sp,	#1
	ld	a, (hl-)
	ld	(de), a
	inc	de
	ld	a, (hl)
	ld	(de), a
;main.c:72: move_sprite(sprite4, x + SPRITE_SIZE, y + SPRITE_SIZE);
	ldhl	sp,	#7
;c:\gbdk\include\gb\gb.h:1973: OAM_item_t * itm = &shadow_OAM[nb];
	ld	l, (hl)
	ld	h, #0x00
	add	hl, hl
	add	hl, hl
	ld	de, #_shadow_OAM
	add	hl, de
;c:\gbdk\include\gb\gb.h:1974: itm->y=y, itm->x=x;
	ld	(hl), b
	inc	hl
	ld	(hl), c
;main.c:72: move_sprite(sprite4, x + SPRITE_SIZE, y + SPRITE_SIZE);
;main.c:73: }
	add	sp, #4
	pop	hl
	add	sp, #5
	jp	(hl)
;main.c:75: void playSound(UINT8 type){
;	---------------------------------
; Function playSound
; ---------------------------------
_playSound::
;main.c:76: if(type == 1){  // Jump sound
	cp	a, #0x01
	jr	NZ, 00104$
;main.c:77: NR10_REG = 0x16;
	ld	a, #0x16
	ldh	(_NR10_REG + 0), a
;main.c:78: NR11_REG = 0x40;  
	ld	a, #0x40
	ldh	(_NR11_REG + 0), a
;main.c:79: NR12_REG = 0x73;  
	ld	a, #0x73
	ldh	(_NR12_REG + 0), a
;main.c:80: NR13_REG = 0x00;  
	xor	a, a
	ldh	(_NR13_REG + 0), a
;main.c:81: NR14_REG = 0xC3;
	ld	a, #0xc3
	ldh	(_NR14_REG + 0), a
	ret
00104$:
;main.c:83: else if(type == 2){  // Shoot sound
	sub	a, #0x02
	ret	NZ
;main.c:84: NR10_REG = 0x06;
	ld	a, #0x06
	ldh	(_NR10_REG + 0), a
;main.c:85: NR11_REG = 0x60;  
	ld	a, #0x60
	ldh	(_NR11_REG + 0), a
;main.c:86: NR12_REG = 0x83;  
	ld	a, #0x83
	ldh	(_NR12_REG + 0), a
;main.c:87: NR13_REG = 0x80;  
	ld	a, #0x80
	ldh	(_NR13_REG + 0), a
;main.c:88: NR14_REG = 0x87;
	ld	a, #0x87
	ldh	(_NR14_REG + 0), a
;main.c:90: }
	ret
;main.c:92: void drawHearts(UINT8 count){
;	---------------------------------
; Function drawHearts
; ---------------------------------
_drawHearts::
	add	sp, #-3
	ld	c, a
;main.c:94: for(i = 0; i < 3; i++){
	ld	b, #0x00
00111$:
;main.c:96: set_sprite_tile(20 + (i * 2), 20);
	ld	e, b
	ld	a, e
	add	a, a
	ldhl	sp,	#0
	ld	(hl), a
	ld	a, (hl+)
	add	a, #0x14
	ld	(hl), a
;main.c:95: if(i < count){
	ld	a, b
	sub	a, c
	jr	NC, 00102$
;main.c:96: set_sprite_tile(20 + (i * 2), 20);
	ld	d, (hl)
;c:\gbdk\include\gb\gb.h:1887: shadow_OAM[nb].tile=tile;
	xor	a, a
	ld	l, d
	ld	h, a
	add	hl, hl
	add	hl, hl
	push	de
	ld	de, #_shadow_OAM
	add	hl, de
	inc	hl
	inc	hl
	pop	de
	ld	(hl), #0x14
;main.c:97: move_sprite(20 + (i * 2), 8 + (i * 16), 8);
	ld	a, e
	swap	a
	and	a, #0xf0
	add	a, #0x08
	ldhl	sp,	#2
	ld	(hl), a
	ld	a, (hl-)
	ld	e, a
	ld	d, (hl)
;c:\gbdk\include\gb\gb.h:1973: OAM_item_t * itm = &shadow_OAM[nb];
	xor	a, a
	ld	l, d
	ld	h, a
	add	hl, hl
	add	hl, hl
	push	de
	ld	de, #_shadow_OAM
	add	hl, de
	pop	de
;c:\gbdk\include\gb\gb.h:1974: itm->y=y, itm->x=x;
	ld	a, #0x08
	ld	(hl+), a
	ld	(hl), e
;main.c:98: set_sprite_tile(21 + (i * 2), 21);
	ldhl	sp,	#0
	ld	a, (hl)
	add	a, #0x15
	ld	e, a
	ld	d, e
;c:\gbdk\include\gb\gb.h:1887: shadow_OAM[nb].tile=tile;
	xor	a, a
	ld	l, d
	ld	h, a
	add	hl, hl
	add	hl, hl
	push	de
	ld	de, #_shadow_OAM
	add	hl, de
	inc	hl
	inc	hl
	pop	de
	ld	(hl), #0x15
;main.c:99: move_sprite(21 + (i * 2), 8 + (i * 16), 16);
;c:\gbdk\include\gb\gb.h:1973: OAM_item_t * itm = &shadow_OAM[nb];
	xor	a, a
	ld	l, e
	ld	h, a
	add	hl, hl
	add	hl, hl
	ld	de, #_shadow_OAM
	add	hl, de
;c:\gbdk\include\gb\gb.h:1974: itm->y=y, itm->x=x;
	ld	a, #0x10
	ld	(hl+), a
	ld	e, l
	ld	d, h
	ldhl	sp,	#2
	ld	a, (hl)
	ld	(de), a
;main.c:99: move_sprite(21 + (i * 2), 8 + (i * 16), 16);
	jr	00112$
00102$:
;main.c:101: move_sprite(20 + (i * 2), OFFSCREEN_X, OFFSCREEN_Y);
	ldhl	sp,	#1
	ld	e, (hl)
;c:\gbdk\include\gb\gb.h:1973: OAM_item_t * itm = &shadow_OAM[nb];
	xor	a, a
	ld	l, e
	ld	h, a
	add	hl, hl
	add	hl, hl
	ld	de, #_shadow_OAM
	add	hl, de
;c:\gbdk\include\gb\gb.h:1974: itm->y=y, itm->x=x;
	ld	a, #0xc8
	ld	(hl+), a
	ld	(hl), #0xc8
;main.c:102: move_sprite(21 + (i * 2), OFFSCREEN_X, OFFSCREEN_Y);
	ldhl	sp,	#0
	ld	a, (hl)
	add	a, #0x15
	ld	e, a
;c:\gbdk\include\gb\gb.h:1973: OAM_item_t * itm = &shadow_OAM[nb];
	xor	a, a
	ld	l, e
	ld	h, a
	add	hl, hl
	add	hl, hl
	ld	de, #_shadow_OAM
	add	hl, de
;c:\gbdk\include\gb\gb.h:1974: itm->y=y, itm->x=x;
	ld	a, #0xc8
	ld	(hl+), a
	ld	(hl), #0xc8
;main.c:102: move_sprite(21 + (i * 2), OFFSCREEN_X, OFFSCREEN_Y);
00112$:
;main.c:94: for(i = 0; i < 3; i++){
	inc	b
	ld	a, b
	sub	a, #0x03
	jp	C, 00111$
;main.c:105: }
	add	sp, #3
	ret
;main.c:109: void setupBullets(void){
;	---------------------------------
; Function setupBullets
; ---------------------------------
_setupBullets::
	dec	sp
;main.c:111: for(i = 0; i < MAX_BULLETS; i++){
	ld	c, #0x00
00104$:
;main.c:112: bullets[i].x = 0;
	ld	l, c
	ld	h, #0x00
	add	hl, hl
	add	hl, hl
	add	hl, hl
	ld	a, l
	add	a, #<(_bullets)
	ld	e, a
	ld	a, h
	adc	a, #>(_bullets)
	ld	d, a
	ld	hl, #0x0004
	add	hl, de
	ld	(hl), #0x00
;main.c:113: bullets[i].y = 0;
	ld	hl, #0x0005
	add	hl, de
	ld	(hl), #0x00
;main.c:114: set_sprite_tile(12 + i, 0);
	ld	a, c
	add	a, #0x0c
	ldhl	sp,	#0
	ld	(hl), a
	ld	b, (hl)
;c:\gbdk\include\gb\gb.h:1887: shadow_OAM[nb].tile=tile;
	xor	a, a
	ld	l, b
	ld	h, a
	add	hl, hl
	add	hl, hl
	push	de
	ld	de, #_shadow_OAM
	add	hl, de
	inc	hl
	inc	hl
	pop	de
	ld	(hl), #0x00
;main.c:115: bullets[i].spritids[0] = 12 + i;
	ldhl	sp,	#0
	ld	a, (hl)
	ld	(de), a
;main.c:116: move_sprite(12 + i, OFFSCREEN_X, OFFSCREEN_Y);
;c:\gbdk\include\gb\gb.h:1973: OAM_item_t * itm = &shadow_OAM[nb];
	ld	l, (hl)
	ld	de, #_shadow_OAM+0
	ld	h, #0x00
	add	hl, hl
	add	hl, hl
	add	hl, de
;c:\gbdk\include\gb\gb.h:1974: itm->y=y, itm->x=x;
	ld	a, #0xc8
	ld	(hl+), a
	ld	(hl), #0xc8
;main.c:111: for(i = 0; i < MAX_BULLETS; i++){
	inc	c
	ld	a, c
	sub	a, #0x06
	jr	C, 00104$
;main.c:118: }
	inc	sp
	ret
;main.c:120: void fireBullet(void){
;	---------------------------------
; Function fireBullet
; ---------------------------------
_fireBullet::
;main.c:122: for(i = 0; i < MAX_BULLETS; i++){
	ld	bc, #0x0
00105$:
;main.c:123: if(bullets[i].y == 0 || bullets[i].x > SCREEN_WIDTH){
	ld	l, b
	ld	h, #0x00
	add	hl, hl
	add	hl, hl
	add	hl, hl
	ld	a, l
	add	a, #<(_bullets)
	ld	e, a
	ld	a, h
	adc	a, #>(_bullets)
	ld	d, a
	ld	hl, #0x0005
	add	hl, de
	ld	a, (hl)
	or	a, a
	jr	Z, 00101$
	ld	hl, #0x0004
	add	hl, de
	ld	a, (hl)
	cp	a, #0xa1
	jr	C, 00106$
00101$:
;main.c:124: bullets[i].x = playerX + BULLET_OFFSET_X;
	ld	l, c
	xor	a, a
	ld	h, a
	add	hl, hl
	add	hl, hl
	add	hl, hl
	ld	de, #_bullets
	add	hl, de
	ld	a, l
	add	a, #0x04
	ld	c, a
	ld	a, h
	adc	a, #0x00
	ld	b, a
	ld	a, (_playerX)
	add	a, #0x0c
	ld	(bc), a
;main.c:125: bullets[i].y = playerY + BULLET_OFFSET_Y;
	ld	bc, #0x0005
	add	hl, bc
	ld	a, (_playerY)
	add	a, #0x02
	ld	(hl), a
;main.c:126: playSound(2);
;main.c:127: return;
	ld	a, #0x02
	jp	_playSound
00106$:
;main.c:122: for(i = 0; i < MAX_BULLETS; i++){
	inc	b
	ld	c, b
	ld	a, b
	sub	a, #0x06
	jr	C, 00105$
;main.c:130: }
	ret
;main.c:132: void updateBullets(void){
;	---------------------------------
; Function updateBullets
; ---------------------------------
_updateBullets::
	add	sp, #-9
;main.c:134: for(i = 0; i < MAX_BULLETS; i++){
	ldhl	sp,	#8
	ld	(hl), #0x00
00108$:
;main.c:135: if(bullets[i].y > 0 && bullets[i].x < SCREEN_WIDTH){
	ldhl	sp,	#8
	ld	c, (hl)
	ld	b, #0x00
	ld	l, c
	ld	h, b
	add	hl, hl
	add	hl, hl
	add	hl, hl
	ld	a, l
	add	a, #<(_bullets)
	ld	c, a
	ld	a, h
	adc	a, #>(_bullets)
	ld	b, a
	ld	hl, #0x0005
	add	hl, bc
	inc	sp
	inc	sp
	ld	e, l
	ld	d, h
	push	de
	ld	a, (de)
	ldhl	sp,	#5
	ld	(hl), a
	ld	hl, #0x0004
	add	hl, bc
	push	hl
	ld	a, l
	ldhl	sp,	#4
	ld	(hl), a
	pop	hl
	ld	a, h
	ldhl	sp,	#3
	ld	(hl), a
;main.c:137: move_sprite(bullets[i].spritids[0], bullets[i].x, bullets[i].y);
	ldhl	sp,	#6
	ld	a, c
	ld	(hl+), a
;main.c:135: if(bullets[i].y > 0 && bullets[i].x < SCREEN_WIDTH){
	ld	a, b
	ld	(hl-), a
	dec	hl
	ld	a, (hl)
	or	a, a
	jr	Z, 00102$
	dec	hl
	dec	hl
	dec	hl
	ld	a, (hl+)
	ld	e, a
	ld	d, (hl)
	ld	a, (de)
	cp	a, #0xa0
	jr	NC, 00102$
;main.c:136: bullets[i].x += BULLET_SPEED;
	dec	hl
	add	a, #0x04
	ld	e, (hl)
	inc	hl
	ld	h, (hl)
	ld	l, e
	ld	(hl), a
;main.c:137: move_sprite(bullets[i].spritids[0], bullets[i].x, bullets[i].y);
	pop	de
	push	de
	ld	a, (de)
	ldhl	sp,	#4
	ld	(hl-), a
	dec	hl
	ld	a, (hl+)
	ld	e, a
	ld	a, (hl+)
	inc	hl
	ld	d, a
	ld	a, (de)
	ld	(hl+), a
	ld	a, (hl+)
	ld	e, a
;c:\gbdk\include\gb\gb.h:1973: OAM_item_t * itm = &shadow_OAM[nb];
	ld	a, (hl-)
	ld	d, a
	ld	a, (de)
	ld	(hl+), a
	xor	a, a
	ld	(hl-), a
	ld	a, (hl)
	ldhl	sp,	#2
	ld	(hl+), a
	ld	(hl), #0x00
	ld	a, #0x02
00134$:
	ldhl	sp,	#2
	sla	(hl)
	inc	hl
	rl	(hl)
	dec	a
	jr	NZ, 00134$
	dec	hl
	ld	a, (hl+)
	ld	e, a
	ld	d, (hl)
	ld	hl, #_shadow_OAM
	add	hl, de
	push	hl
	ld	a, l
	ldhl	sp,	#8
	ld	(hl), a
	pop	hl
	ld	a, h
	ldhl	sp,	#7
;c:\gbdk\include\gb\gb.h:1974: itm->y=y, itm->x=x;
	ld	(hl-), a
	ld	a, (hl+)
	ld	e, a
	ld	d, (hl)
	ldhl	sp,	#4
	ld	a, (hl)
	ld	(de), a
	ldhl	sp,#6
	ld	a, (hl+)
	ld	e, a
	ld	d, (hl)
	ld	l, e
	ld	h, d
	inc	hl
	push	hl
	ld	a, l
	ldhl	sp,	#5
	ld	(hl), a
	pop	hl
	ld	a, h
	ldhl	sp,	#4
	ld	(hl-), a
	ld	a, (hl+)
	ld	e, a
	ld	a, (hl+)
	ld	d, a
	ld	a, (hl)
	ld	(de), a
;main.c:137: move_sprite(bullets[i].spritids[0], bullets[i].x, bullets[i].y);
	jr	00109$
00102$:
;main.c:139: bullets[i].y = 0;
	pop	hl
	ld	(hl), #0x00
	push	hl
;main.c:140: bullets[i].x = 0;
	ldhl	sp,	#2
	ld	a, (hl+)
	ld	h, (hl)
	ld	l, a
	ld	(hl), #0x00
;main.c:141: move_sprite(bullets[i].spritids[0], OFFSCREEN_X, OFFSCREEN_Y);
	ldhl	sp,#6
	ld	a, (hl+)
	ld	e, a
;c:\gbdk\include\gb\gb.h:1973: OAM_item_t * itm = &shadow_OAM[nb];
	ld	a, (hl-)
	ld	d, a
	ld	a, (de)
	ld	c, a
	ld	(hl+), a
	xor	a, a
	ld	(hl-), a
	ld	a, (hl-)
	dec	hl
	ld	(hl+), a
	ld	(hl), #0x00
	ld	a, #0x02
00135$:
	ldhl	sp,	#4
	sla	(hl)
	inc	hl
	rl	(hl)
	dec	a
	jr	NZ, 00135$
	dec	hl
	ld	a, (hl+)
	ld	e, a
	ld	d, (hl)
	ld	hl, #_shadow_OAM
	add	hl, de
	push	hl
	ld	a, l
	ldhl	sp,	#8
	ld	(hl), a
	pop	hl
	ld	a, h
	ldhl	sp,	#7
;c:\gbdk\include\gb\gb.h:1974: itm->y=y, itm->x=x;
	ld	(hl-), a
	ld	a, (hl+)
	ld	h, (hl)
	ld	l, a
	ld	(hl), #0xc8
	ldhl	sp,	#6
	ld	a, (hl+)
	ld	h, (hl)
	ld	l, a
	inc	hl
	ld	(hl), #0xc8
;main.c:141: move_sprite(bullets[i].spritids[0], OFFSCREEN_X, OFFSCREEN_Y);
00109$:
;main.c:134: for(i = 0; i < MAX_BULLETS; i++){
	ldhl	sp,	#8
	inc	(hl)
	ld	a, (hl)
	sub	a, #0x06
	jp	C, 00108$
;main.c:144: }
	add	sp, #9
	ret
;main.c:148: void jump(void){
;	---------------------------------
; Function jump
; ---------------------------------
_jump::
;main.c:149: if(isJumping == 0){
	ld	hl, #_isJumping
	ld	a, (hl)
	or	a, a
	ret	NZ
;main.c:150: isJumping = 1;
	ld	(hl), #0x01
;main.c:151: velocityY = JUMP_STRENGTH;
	ld	hl, #_velocityY
	ld	(hl), #0x0a
;main.c:152: playSound(1);
	ld	a, #0x01
;main.c:154: }
	jp	_playSound
;main.c:156: void updateJump(void){
;	---------------------------------
; Function updateJump
; ---------------------------------
_updateJump::
;main.c:159: velocityY = velocityY + GRAVITY;
	ld	hl, #_velocityY
	ld	a, (hl)
	add	a, #0xfe
	ld	(hl), a
;main.c:160: playerY = playerY - velocityY;
	ld	a, (_playerY)
	sub	a, (hl)
;main.c:162: if(playerY >= FLOOR_Y){
	ld	(#_playerY),a
	sub	a, #0x69
	ret	C
;main.c:163: isJumping = 0;
;main.c:164: velocityY = 0;
	xor	a, a
	ld	(#_isJumping), a
	ld	(#_velocityY),a
;main.c:165: playerY = FLOOR_Y;
	ld	hl, #_playerY
	ld	(hl), #0x69
;main.c:166: hitFloor = 1;
;main.c:168: }
	ret
;main.c:172: void updateEnemyAnimation(void){
;	---------------------------------
; Function updateEnemyAnimation
; ---------------------------------
_updateEnemyAnimation::
;main.c:173: animCounter++;
	ld	hl, #_animCounter
	inc	(hl)
;main.c:175: if(animCounter >= ANIM_SPEED){
	ld	a, (hl)
	sub	a, #0x0a
	jr	C, 00104$
;main.c:176: animCounter = 0;
	ld	(hl), #0x00
;main.c:177: currentEnemyFrame++;
	ld	hl, #_currentEnemyFrame
	inc	(hl)
;main.c:179: if(currentEnemyFrame >= 3){
	ld	a, (hl)
	sub	a, #0x03
	jr	C, 00104$
;main.c:180: currentEnemyFrame = 0;
	ld	(hl), #0x00
00104$:
;main.c:185: if(currentEnemyFrame == 0){
	ld	a, (#_currentEnemyFrame)
	or	a, a
	jr	NZ, 00111$
;c:\gbdk\include\gb\gb.h:1887: shadow_OAM[nb].tile=tile;
	ld	hl, #(_shadow_OAM + 34)
	ld	(hl), #0x08
	ld	hl, #(_shadow_OAM + 38)
	ld	(hl), #0x0a
	ld	hl, #(_shadow_OAM + 42)
	ld	(hl), #0x09
	ld	hl, #(_shadow_OAM + 46)
	ld	(hl), #0x0b
;main.c:189: set_sprite_tile(11, 11);
	ret
00111$:
;main.c:191: else if(currentEnemyFrame == 1){
	ld	a, (#_currentEnemyFrame)
	dec	a
	jr	NZ, 00108$
;c:\gbdk\include\gb\gb.h:1887: shadow_OAM[nb].tile=tile;
	ld	hl, #(_shadow_OAM + 34)
	ld	(hl), #0x0c
	ld	hl, #(_shadow_OAM + 38)
	ld	(hl), #0x0e
	ld	hl, #(_shadow_OAM + 42)
	ld	(hl), #0x0d
	ld	hl, #(_shadow_OAM + 46)
	ld	(hl), #0x0f
;main.c:195: set_sprite_tile(11, 15);
	ret
00108$:
;main.c:197: else if(currentEnemyFrame == 2){
	ld	a, (#_currentEnemyFrame)
	sub	a, #0x02
	ret	NZ
;c:\gbdk\include\gb\gb.h:1887: shadow_OAM[nb].tile=tile;
	ld	hl, #(_shadow_OAM + 34)
	ld	(hl), #0x10
	ld	hl, #(_shadow_OAM + 38)
	ld	(hl), #0x12
	ld	hl, #(_shadow_OAM + 42)
	ld	(hl), #0x11
	ld	hl, #(_shadow_OAM + 46)
	ld	(hl), #0x13
;main.c:201: set_sprite_tile(11, 19);
;main.c:203: }
	ret
;main.c:207: void checkBulletEnemy(void){
;	---------------------------------
; Function checkBulletEnemy
; ---------------------------------
_checkBulletEnemy::
	add	sp, #-9
;main.c:209: for(i = 0; i < MAX_BULLETS; i++){
	ldhl	sp,	#8
	ld	(hl), #0x00
00110$:
;main.c:210: if(bullets[i].y > 0 && bullets[i].x < SCREEN_WIDTH){
	ldhl	sp,	#8
	ld	c, (hl)
	ld	b, #0x00
	sla	c
	rl	b
	sla	c
	rl	b
	sla	c
	rl	b
	ld	hl, #_bullets
	add	hl, bc
	push	hl
	ld	a, l
	ldhl	sp,	#7
	ld	(hl), a
	pop	hl
	ld	a, h
	ldhl	sp,	#6
	ld	(hl-), a
	ld	a, (hl+)
	ld	e, a
	ld	d, (hl)
	ld	hl, #0x0005
	add	hl, de
	inc	sp
	inc	sp
	ld	e, l
	ld	d, h
	push	de
	ld	a, (de)
	ldhl	sp,	#7
	ld	(hl), a
	or	a, a
	jp	Z, 00111$
	dec	hl
	dec	hl
	ld	a, (hl+)
	ld	e, a
	ld	d, (hl)
	ld	hl, #0x0004
	add	hl, de
	push	hl
	ld	a, l
	ldhl	sp,	#4
	ld	(hl), a
	pop	hl
	ld	a, h
	ldhl	sp,	#3
	ld	(hl-), a
	ld	a, (hl+)
	ld	e, a
	ld	d, (hl)
	ld	a, (de)
	cp	a, #0xa0
	jp	NC, 00111$
;main.c:211: if(bullets[i].x >= enemyX && bullets[i].x <= enemyX + 16 &&
	ld	c, a
	ld	b, #0x00
	ld	hl, #_enemyX
	ld	a, c
	sub	a, (hl)
	inc	hl
	ld	a, b
	sbc	a, (hl)
	ld	a, b
	ld	d, a
	bit	7, (hl)
	jr	Z, 00165$
	bit	7, d
	jr	NZ, 00166$
	cp	a, a
	jr	00166$
00165$:
	bit	7, d
	jr	Z, 00166$
	scf
00166$:
	jr	C, 00111$
	ld	hl, #_enemyX
	ld	a, (hl+)
	ld	e, a
	ld	d, (hl)
	ld	hl, #0x0010
	add	hl, de
	push	hl
	ld	a, l
	ldhl	sp,	#7
	ld	(hl), a
	pop	hl
	ld	a, h
	ldhl	sp,	#6
	ld	(hl-), a
	ld	a, (hl+)
	sub	a, c
	ld	a, (hl)
	sbc	a, b
	ld	d, (hl)
	ld	a, b
	bit	7,a
	jr	Z, 00167$
	bit	7, d
	jr	NZ, 00168$
	cp	a, a
	jr	00168$
00167$:
	bit	7, d
	jr	Z, 00168$
	scf
00168$:
	jr	C, 00111$
;main.c:212: bullets[i].y >= enemyY && bullets[i].y <= enemyY + 16){
	ldhl	sp,	#7
	ld	a, (hl)
	ld	hl, #_enemyY
	sub	a, (hl)
	jr	C, 00111$
	ld	a, (hl)
	ld	d, #0x00
	ld	e, a
	ld	hl, #0x0010
	add	hl, de
	push	hl
	ld	a, l
	ldhl	sp,	#6
	ld	(hl), a
	pop	hl
	ld	a, h
	ldhl	sp,	#5
	ld	(hl+), a
	inc	hl
	ld	a, (hl-)
	ld	(hl+), a
	ld	(hl), #0x00
	ldhl	sp,	#4
	ld	e, l
	ld	d, h
	ldhl	sp,	#6
	ld	a, (de)
	inc	de
	sub	a, (hl)
	inc	hl
	ld	a, (de)
	sbc	a, (hl)
	jr	C, 00111$
;main.c:213: bullets[i].y = 0;
	pop	hl
	ld	(hl), #0x00
	push	hl
;main.c:214: bullets[i].x = 0;
	ldhl	sp,	#2
	ld	a, (hl+)
	ld	h, (hl)
	ld	l, a
	ld	(hl), #0x00
;main.c:215: score += 10;
	ld	hl, #_score
	ld	a, (hl)
	add	a, #0x0a
	ld	(hl+), a
	ld	a, (hl)
	adc	a, #0x00
	ld	(hl), a
;main.c:216: enemyX = ENEMY_START_X;
	ld	hl, #_enemyX
	ld	a, #0xa0
	ld	(hl+), a
	xor	a, a
	ld	(hl), a
00111$:
;main.c:209: for(i = 0; i < MAX_BULLETS; i++){
	ldhl	sp,	#8
	inc	(hl)
	ld	a, (hl)
	sub	a, #0x06
	jp	C, 00110$
;main.c:220: }
	add	sp, #9
	ret
;main.c:222: void checkPlayerEnemy(void){
;	---------------------------------
; Function checkPlayerEnemy
; ---------------------------------
_checkPlayerEnemy::
	add	sp, #-4
;main.c:223: if(playerX >= enemyX - 8 && playerX <= enemyX + 16 &&
	ld	hl, #_enemyX
	ld	a, (hl+)
	add	a, #0xf8
	ld	c, a
	ld	a, (hl)
	adc	a, #0xff
	ld	b, a
	ld	a, (#_playerX)
	ldhl	sp,	#2
	ld	(hl+), a
	xor	a, a
	ld	(hl-), a
	ld	a, (hl+)
	sub	a, c
	ld	a, (hl)
	sbc	a, b
	ld	d, (hl)
	ld	a, b
	bit	7,a
	jr	Z, 00136$
	bit	7, d
	jr	NZ, 00137$
	cp	a, a
	jr	00137$
00136$:
	bit	7, d
	jr	Z, 00137$
	scf
00137$:
	jp	C, 00106$
	ld	hl, #_enemyX
	ld	a, (hl+)
	add	a, #0x10
	ld	c, a
	ld	a, (hl)
	adc	a, #0x00
	ld	b, a
	ldhl	sp,	#2
	ld	a, c
	sub	a, (hl)
	inc	hl
	ld	a, b
	sbc	a, (hl)
	ld	a, b
	ld	d, a
	bit	7, (hl)
	jr	Z, 00138$
	bit	7, d
	jr	NZ, 00139$
	cp	a, a
	jr	00139$
00138$:
	bit	7, d
	jr	Z, 00139$
	scf
00139$:
	jr	C, 00106$
;main.c:224: playerY >= enemyY - 8 && playerY <= enemyY + 16){
	ld	a, (_enemyY)
	ld	c, a
	ld	b, #0x00
	ld	de, #0x0008
	ld	a, c
	sub	a, e
	ld	e, a
	ld	a, b
	sbc	a, d
	ldhl	sp,	#1
	ld	(hl-), a
	ld	(hl), e
	ld	a, (#_playerY)
	ldhl	sp,	#2
	ld	(hl+), a
	ld	(hl), #0x00
	ldhl	sp,	#2
	ld	e, l
	ld	d, h
	ldhl	sp,	#0
	ld	a, (de)
	inc	de
	sub	a, (hl)
	inc	hl
	ld	a, (de)
	sbc	a, (hl)
	ld	a, (de)
	ld	d, a
	bit	7, (hl)
	jr	Z, 00140$
	bit	7, d
	jr	NZ, 00141$
	cp	a, a
	jr	00141$
00140$:
	bit	7, d
	jr	Z, 00141$
	scf
00141$:
	jr	C, 00106$
	ld	hl, #0x0010
	add	hl, bc
	ld	c, l
	ld	b, h
	ldhl	sp,	#2
	ld	a, c
	sub	a, (hl)
	inc	hl
	ld	a, b
	sbc	a, (hl)
	jr	C, 00106$
;main.c:225: lives--;
	ld	hl, #_lives
	dec	(hl)
;main.c:226: enemyX = ENEMY_START_X;
	ld	hl, #_enemyX
	ld	a, #0xa0
	ld	(hl+), a
	xor	a, a
	ld	(hl), a
;main.c:227: enemyY = ENEMY_START_Y;
	ld	hl, #_enemyY
	ld	(hl), #0x69
00106$:
;main.c:229: }
	add	sp, #4
	ret
;main.c:231: void updatePlayerAnimation(void){
;	---------------------------------
; Function updatePlayerAnimation
; ---------------------------------
_updatePlayerAnimation::
;main.c:232: animCounter++;
	ld	hl, #_animCounter
	inc	(hl)
;main.c:234: if(animCounter >= ANIM_SPEED){
	ld	a, (hl)
	sub	a, #0x0a
	ret	C
;main.c:235: animCounter = 0;
	ld	(hl), #0x00
;main.c:238: if((joypad() & J_LEFT) || (joypad() & J_RIGHT)){
	call	_joypad
	bit	1, a
	jr	NZ, 00104$
	call	_joypad
	rrca
	ret	NC
00104$:
;main.c:240: if(currentEnemyFrame == 0){
	ld	a, (#_currentEnemyFrame)
	or	a, a
	jr	NZ, 00102$
;c:\gbdk\include\gb\gb.h:1887: shadow_OAM[nb].tile=tile;
	ld	hl, #(_shadow_OAM + 2)
	ld	(hl), #0x04
	ld	hl, #(_shadow_OAM + 6)
	ld	(hl), #0x06
	ld	hl, #(_shadow_OAM + 10)
	ld	(hl), #0x05
	ld	hl, #(_shadow_OAM + 14)
	ld	(hl), #0x07
;main.c:245: currentEnemyFrame = 1;
	ld	hl, #_currentEnemyFrame
	ld	(hl), #0x01
	ret
00102$:
;c:\gbdk\include\gb\gb.h:1887: shadow_OAM[nb].tile=tile;
	ld	hl, #(_shadow_OAM + 2)
	ld	(hl), #0x00
	ld	hl, #(_shadow_OAM + 6)
	ld	(hl), #0x02
	ld	hl, #(_shadow_OAM + 10)
	ld	(hl), #0x01
	ld	hl, #(_shadow_OAM + 14)
	ld	(hl), #0x03
;main.c:251: currentEnemyFrame = 0;
	xor	a, a
	ld	(#_currentEnemyFrame),a
;main.c:255: }
	ret
;main.c:259: void main(void){
;	---------------------------------
; Function main
; ---------------------------------
_main::
	dec	sp
;main.c:261: UINT8 fireDelay = 0;
	ldhl	sp,	#0
	ld	(hl), #0x00
;main.c:263: set_sprite_data(0, 8, GameSprites);
	ld	de, #_GameSprites
	push	de
	ld	hl, #0x800
	push	hl
	call	_set_sprite_data
	add	sp, #4
;main.c:264: set_sprite_data(8, 20, Amogus);
	ld	de, #_Amogus
	push	de
	ld	hl, #0x1408
	push	hl
	call	_set_sprite_data
	add	sp, #4
;main.c:265: set_sprite_data(20, 2, heart);
	ld	de, #_heart
	push	de
	ld	hl, #0x214
	push	hl
	call	_set_sprite_data
	add	sp, #4
;main.c:267: set_bkg_data(0, 9, tile);
	ld	de, #_tile
	push	de
	ld	hl, #0x900
	push	hl
	call	_set_bkg_data
	add	sp, #4
;main.c:268: set_bkg_tiles(0, 0, 40, 18, bgmap);
	ld	de, #_bgmap
	push	de
	ld	hl, #0x1228
	push	hl
	xor	a, a
	rrca
	push	af
	call	_set_bkg_tiles
	add	sp, #6
;main.c:270: NR52_REG = 0x80;
	ld	a, #0x80
	ldh	(_NR52_REG + 0), a
;main.c:271: NR50_REG = 0x77;
	ld	a, #0x77
	ldh	(_NR50_REG + 0), a
;main.c:272: NR51_REG = 0xFF;
	ld	a, #0xff
	ldh	(_NR51_REG + 0), a
;main.c:274: SHOW_BKG;
	ldh	a, (_LCDC_REG + 0)
	or	a, #0x01
	ldh	(_LCDC_REG + 0), a
;main.c:275: SHOW_SPRITES;
	ldh	a, (_LCDC_REG + 0)
	or	a, #0x02
	ldh	(_LCDC_REG + 0), a
;main.c:276: DISPLAY_ON;
	ldh	a, (_LCDC_REG + 0)
	or	a, #0x80
	ldh	(_LCDC_REG + 0), a
;main.c:278: BGP_REG = 0xE4;
	ld	a, #0xe4
	ldh	(_BGP_REG + 0), a
;main.c:279: OBP0_REG = 0xE4;
	ld	a, #0xe4
	ldh	(_OBP0_REG + 0), a
;main.c:280: OBP1_REG = 0xE4;
	ld	a, #0xe4
	ldh	(_OBP1_REG + 0), a
;main.c:282: setupBullets();
	call	_setupBullets
;c:\gbdk\include\gb\gb.h:1887: shadow_OAM[nb].tile=tile;
	ld	hl, #(_shadow_OAM + 2)
	ld	(hl), #0x00
	ld	hl, #(_shadow_OAM + 6)
	ld	(hl), #0x02
	ld	hl, #(_shadow_OAM + 10)
	ld	(hl), #0x01
	ld	hl, #(_shadow_OAM + 14)
	ld	(hl), #0x03
	ld	hl, #(_shadow_OAM + 34)
	ld	(hl), #0x08
	ld	hl, #(_shadow_OAM + 38)
	ld	(hl), #0x0a
	ld	hl, #(_shadow_OAM + 42)
	ld	(hl), #0x09
	ld	hl, #(_shadow_OAM + 46)
	ld	(hl), #0x0b
;main.c:296: while(1){
00120$:
;main.c:297: if(lives == 0) break;
	ld	a, (#_lives)
	or	a, a
	jp	Z, 00131$
;main.c:299: joy = joypad();
	call	_joypad
	ld	c, a
;main.c:302: if(joy & J_LEFT){
	bit	1, c
	jr	Z, 00104$
;main.c:303: playerX -= PLAYER_SPEED;
	ld	a, (_playerX)
	add	a, #0xfe
	ld	(#_playerX),a
00104$:
;main.c:305: if(joy & J_RIGHT){
	bit	0, c
	jr	Z, 00106$
;main.c:306: playerX += PLAYER_SPEED;
	ld	a, (_playerX)
	add	a, #0x02
	ld	(#_playerX),a
00106$:
;main.c:310: if((joy & J_B) && isJumping == 0){
	bit	5, c
	jr	Z, 00108$
	ld	a, (#_isJumping)
	or	a, a
	jr	NZ, 00108$
;main.c:311: jump();
	push	bc
	call	_jump
	pop	bc
00108$:
;main.c:315: if((joy & J_A) && fireDelay == 0){
	bit	4, c
	jr	Z, 00111$
	ldhl	sp,	#0
	ld	a, (hl)
	or	a, a
	jr	NZ, 00111$
;main.c:316: fireBullet();
	call	_fireBullet
;main.c:317: fireDelay = FIRE_RATE;
	ldhl	sp,	#0
	ld	(hl), #0x0a
00111$:
;main.c:320: if(fireDelay > 0) fireDelay--;
	ldhl	sp,	#0
	ld	a, (hl)
	or	a, a
	jr	Z, 00114$
	dec	(hl)
00114$:
;main.c:323: if(isJumping == 1){
	ld	a, (#_isJumping)
	dec	a
	jr	NZ, 00116$
;main.c:324: updateJump();
	call	_updateJump
00116$:
;main.c:328: updateEnemyAnimation();
	call	_updateEnemyAnimation
;main.c:331: updateBullets();
	call	_updateBullets
;main.c:333: updatePlayerAnimation();
	call	_updatePlayerAnimation
;main.c:336: enemyX -= ENEMY_SPEED;
	ld	hl, #_enemyX
	ld	a, (hl+)
	ld	e, a
	ld	a, (hl-)
	ld	d, a
	dec	de
	dec	de
	ld	a, e
	ld	(hl+), a
;main.c:339: if(enemyX < -20){
	ld	a, d
	ld	(hl-), a
	ld	a, (hl+)
	sub	a, #0xec
	ld	a, (hl)
	sbc	a, #0xff
	ld	d, (hl)
	ld	a, #0xff
	bit	7,a
	jr	Z, 00216$
	bit	7, d
	jr	NZ, 00217$
	cp	a, a
	jr	00217$
00216$:
	bit	7, d
	jr	Z, 00217$
	scf
00217$:
	jr	NC, 00118$
;main.c:340: enemyX = ENEMY_START_X;
	ld	hl, #_enemyX
	ld	a, #0xa0
	ld	(hl+), a
	xor	a, a
	ld	(hl), a
00118$:
;main.c:344: checkBulletEnemy();
	call	_checkBulletEnemy
;main.c:345: checkPlayerEnemy();
	call	_checkPlayerEnemy
;main.c:348: moveSprite4(0, 1, 2, 3, playerX, playerY);
	ld	a, (_playerX)
	ld	c, a
	ld	b, #0x00
	ld	a, (_playerY)
	push	af
	inc	sp
	push	bc
	ld	hl, #0x302
	push	hl
	ld	e, #0x01
	xor	a, a
	call	_moveSprite4
;main.c:349: moveSprite4(8, 9, 10, 11, enemyX, enemyY);
	ld	a, (_enemyY)
	push	af
	inc	sp
	ld	a, (_enemyX)
	ld	e, a
	ld	hl, #_enemyX + 1
	ld	d, (hl)
	push	de
	ld	hl, #0xb0a
	push	hl
	ld	e, #0x09
	ld	a, #0x08
	call	_moveSprite4
;c:\gbdk\include\gb\gb.h:1475: SCX_REG+=x, SCY_REG+=y;
	ldh	a, (_SCX_REG + 0)
	inc	a
	ldh	(_SCX_REG + 0), a
;main.c:352: drawHearts(lives);
	ld	a, (_lives)
	call	_drawHearts
;main.c:354: waitFrames(5);
	ld	a, #0x05
	call	_waitFrames
	jp	00120$
00131$:
;main.c:356: }
	inc	sp
	ret
	.area _CODE
	.area _INITIALIZER
__xinit__GameSprites:
	.db #0x00	; 0
	.db #0x00	; 0
	.db #0x00	; 0
	.db #0x00	; 0
	.db #0x01	; 1
	.db #0x00	; 0
	.db #0x01	; 1
	.db #0x00	; 0
	.db #0x01	; 1
	.db #0x00	; 0
	.db #0x03	; 3
	.db #0x00	; 0
	.db #0x03	; 3
	.db #0x00	; 0
	.db #0x03	; 3
	.db #0x00	; 0
	.db #0x03	; 3
	.db #0x00	; 0
	.db #0x03	; 3
	.db #0x00	; 0
	.db #0x03	; 3
	.db #0x00	; 0
	.db #0x07	; 7
	.db #0x00	; 0
	.db #0x0e	; 14
	.db #0x00	; 0
	.db #0x1c	; 28
	.db #0x00	; 0
	.db #0x38	; 56	'8'
	.db #0x00	; 0
	.db #0x00	; 0
	.db #0x3c	; 60
	.db #0x00	; 0
	.db #0x00	; 0
	.db #0x00	; 0
	.db #0x00	; 0
	.db #0xc0	; 192
	.db #0x00	; 0
	.db #0xc0	; 192
	.db #0x00	; 0
	.db #0xc0	; 192
	.db #0x00	; 0
	.db #0x80	; 128
	.db #0x00	; 0
	.db #0xf0	; 240
	.db #0x0f	; 15
	.db #0x30	; 48	'0'
	.db #0x08	; 8
	.db #0xe0	; 224
	.db #0x00	; 0
	.db #0x00	; 0
	.db #0x00	; 0
	.db #0x00	; 0
	.db #0x00	; 0
	.db #0x80	; 128
	.db #0x00	; 0
	.db #0xc0	; 192
	.db #0x00	; 0
	.db #0xe0	; 224
	.db #0x00	; 0
	.db #0x60	; 96
	.db #0x00	; 0
	.db #0x00	; 0
	.db #0x78	; 120	'x'
	.db #0x00	; 0
	.db #0x00	; 0
	.db #0x00	; 0
	.db #0x00	; 0
	.db #0x01	; 1
	.db #0x00	; 0
	.db #0x01	; 1
	.db #0x00	; 0
	.db #0x01	; 1
	.db #0x00	; 0
	.db #0x03	; 3
	.db #0x00	; 0
	.db #0x03	; 3
	.db #0x00	; 0
	.db #0x03	; 3
	.db #0x00	; 0
	.db #0x03	; 3
	.db #0x00	; 0
	.db #0x03	; 3
	.db #0x00	; 0
	.db #0x03	; 3
	.db #0x00	; 0
	.db #0x07	; 7
	.db #0x00	; 0
	.db #0x0e	; 14
	.db #0x00	; 0
	.db #0x0c	; 12
	.db #0x00	; 0
	.db #0x0c	; 12
	.db #0x00	; 0
	.db #0x00	; 0
	.db #0x0f	; 15
	.db #0x00	; 0
	.db #0x00	; 0
	.db #0x00	; 0
	.db #0x00	; 0
	.db #0xc0	; 192
	.db #0x00	; 0
	.db #0xc0	; 192
	.db #0x00	; 0
	.db #0xc0	; 192
	.db #0x00	; 0
	.db #0x80	; 128
	.db #0x00	; 0
	.db #0xf0	; 240
	.db #0x0f	; 15
	.db #0x30	; 48	'0'
	.db #0x08	; 8
	.db #0xe0	; 224
	.db #0x00	; 0
	.db #0x00	; 0
	.db #0x00	; 0
	.db #0x00	; 0
	.db #0x00	; 0
	.db #0x80	; 128
	.db #0x00	; 0
	.db #0xc0	; 192
	.db #0x00	; 0
	.db #0xc0	; 192
	.db #0x00	; 0
	.db #0xe0	; 224
	.db #0x00	; 0
	.db #0x00	; 0
	.db #0xf0	; 240
	.db #0x00	; 0
	.db #0x00	; 0
	.db #0x00	; 0
	.db #0x00	; 0
	.db #0x00	; 0
	.db #0x00	; 0
	.db #0x00	; 0
	.db #0x00	; 0
	.db #0x00	; 0
	.db #0x00	; 0
	.db #0x00	; 0
	.db #0x00	; 0
	.db #0x00	; 0
	.db #0x00	; 0
	.db #0x00	; 0
	.db #0x00	; 0
	.db #0x00	; 0
	.db #0x00	; 0
	.db #0x00	; 0
	.db #0x00	; 0
	.db #0x00	; 0
	.db #0x00	; 0
	.db #0x00	; 0
	.db #0x00	; 0
	.db #0x00	; 0
	.db #0x00	; 0
	.db #0x00	; 0
	.db #0x00	; 0
	.db #0x00	; 0
	.db #0x00	; 0
	.db #0x00	; 0
	.db #0x00	; 0
	.db #0x00	; 0
	.db #0x00	; 0
	.db #0x00	; 0
	.db #0x00	; 0
	.db #0x00	; 0
	.db #0x00	; 0
	.db #0x00	; 0
	.db #0x00	; 0
	.db #0x00	; 0
	.db #0x00	; 0
	.db #0x00	; 0
	.db #0x00	; 0
	.db #0x00	; 0
	.db #0x00	; 0
	.db #0x00	; 0
	.db #0x00	; 0
	.db #0x00	; 0
	.db #0x00	; 0
	.db #0x00	; 0
	.db #0x00	; 0
	.db #0x00	; 0
	.db #0x00	; 0
	.db #0x00	; 0
	.db #0x00	; 0
	.db #0x00	; 0
	.db #0x00	; 0
	.db #0x00	; 0
	.db #0x00	; 0
	.db #0x00	; 0
	.db #0x00	; 0
	.db #0x00	; 0
	.db #0x00	; 0
	.db #0x00	; 0
	.db #0x00	; 0
	.db #0x00	; 0
	.db #0x00	; 0
	.db #0x00	; 0
	.db #0x00	; 0
	.db #0x00	; 0
	.db #0x00	; 0
	.db #0x00	; 0
	.db #0x00	; 0
	.db #0x00	; 0
	.db #0x00	; 0
	.db #0x00	; 0
	.db #0x00	; 0
	.db #0x00	; 0
	.db #0x00	; 0
	.db #0x00	; 0
	.db #0x00	; 0
	.db #0x00	; 0
	.db #0x00	; 0
	.db #0x00	; 0
	.db #0x00	; 0
	.db #0x00	; 0
	.db #0x00	; 0
	.db #0x00	; 0
	.db #0x00	; 0
	.db #0x00	; 0
	.db #0x00	; 0
	.db #0x00	; 0
	.db #0x00	; 0
	.db #0x00	; 0
	.db #0x00	; 0
	.db #0x00	; 0
	.db #0x00	; 0
	.db #0x00	; 0
	.db #0x00	; 0
	.db #0x00	; 0
	.db #0x00	; 0
	.db #0x00	; 0
	.db #0x00	; 0
	.db #0x00	; 0
	.db #0x00	; 0
	.db #0x00	; 0
	.db #0x00	; 0
	.db #0x00	; 0
	.db #0x00	; 0
	.db #0x00	; 0
	.db #0x00	; 0
	.db #0x00	; 0
	.db #0x00	; 0
	.db #0x00	; 0
	.db #0x00	; 0
	.db #0x00	; 0
	.db #0x00	; 0
	.db #0x00	; 0
	.db #0x00	; 0
	.db #0x00	; 0
	.db #0x00	; 0
	.db #0x00	; 0
	.db #0x00	; 0
	.db #0x00	; 0
	.db #0x00	; 0
	.db #0x00	; 0
	.db #0x00	; 0
	.db #0x00	; 0
	.db #0x00	; 0
	.db #0x00	; 0
	.db #0x00	; 0
	.db #0x00	; 0
	.db #0x00	; 0
	.db #0x00	; 0
	.db #0x00	; 0
	.db #0x00	; 0
	.db #0x00	; 0
	.db #0x00	; 0
	.db #0x00	; 0
	.db #0x00	; 0
	.db #0x00	; 0
	.db #0x00	; 0
	.db #0x00	; 0
	.db #0x00	; 0
	.db #0x00	; 0
	.db #0x00	; 0
	.db #0x00	; 0
	.db #0x00	; 0
	.db #0x00	; 0
	.db #0x00	; 0
	.db #0x00	; 0
	.db #0x00	; 0
	.db #0x00	; 0
	.db #0x00	; 0
	.db #0x00	; 0
	.db #0x00	; 0
	.db #0x00	; 0
	.db #0x00	; 0
	.db #0x00	; 0
	.db #0x00	; 0
	.db #0x00	; 0
	.db #0x00	; 0
	.db #0x00	; 0
	.db #0x00	; 0
	.db #0x00	; 0
	.db #0x00	; 0
	.db #0x00	; 0
	.db #0x00	; 0
	.db #0x00	; 0
	.db #0x00	; 0
	.db #0x00	; 0
	.db #0x00	; 0
	.db #0x00	; 0
	.db #0x00	; 0
	.db #0x00	; 0
	.db #0x00	; 0
	.db #0x00	; 0
	.db #0x00	; 0
	.db #0x00	; 0
	.db #0x00	; 0
	.db #0x00	; 0
	.db #0x00	; 0
	.db #0x00	; 0
	.db #0x00	; 0
	.db #0x00	; 0
	.db #0x00	; 0
	.db #0x00	; 0
	.db #0x00	; 0
	.db #0x00	; 0
	.db #0x00	; 0
	.db #0x00	; 0
	.db #0x00	; 0
	.db #0x00	; 0
	.db #0x00	; 0
	.db #0x00	; 0
	.db #0x00	; 0
	.db #0x00	; 0
	.db #0x00	; 0
	.db #0x00	; 0
	.db #0x00	; 0
	.db #0x00	; 0
	.db #0x00	; 0
	.db #0x00	; 0
	.db #0x00	; 0
	.db #0x00	; 0
	.db #0x00	; 0
	.db #0x00	; 0
	.db #0x00	; 0
	.db #0x00	; 0
	.db #0x00	; 0
	.db #0x00	; 0
	.db #0x00	; 0
	.db #0x00	; 0
	.db #0x00	; 0
	.db #0x00	; 0
	.db #0x00	; 0
	.db #0x00	; 0
	.db #0x00	; 0
	.db #0x00	; 0
	.db #0x00	; 0
	.db #0x00	; 0
	.db #0x00	; 0
	.db #0x00	; 0
	.db #0x00	; 0
	.db #0x00	; 0
	.db #0x00	; 0
	.db #0x00	; 0
	.db #0x00	; 0
	.db #0x00	; 0
	.db #0x00	; 0
	.db #0x00	; 0
	.db #0x00	; 0
	.db #0x00	; 0
	.db #0x00	; 0
	.db #0x00	; 0
	.db #0x00	; 0
	.db #0x00	; 0
	.db #0x00	; 0
	.db #0x00	; 0
	.db #0x00	; 0
	.db #0x00	; 0
	.db #0x00	; 0
	.db #0x00	; 0
	.db #0x00	; 0
	.db #0x00	; 0
	.db #0x00	; 0
	.db #0x00	; 0
	.db #0x00	; 0
	.db #0x00	; 0
	.db #0x00	; 0
	.db #0x00	; 0
	.db #0x00	; 0
	.db #0x00	; 0
	.db #0x00	; 0
	.db #0x00	; 0
	.db #0x00	; 0
	.db #0x00	; 0
	.db #0x00	; 0
	.db #0x00	; 0
	.db #0x00	; 0
	.db #0x00	; 0
	.db #0x00	; 0
	.db #0x00	; 0
	.db #0x00	; 0
	.db #0x00	; 0
	.db #0x00	; 0
	.db #0x00	; 0
	.db #0x00	; 0
	.db #0x00	; 0
	.db #0x00	; 0
	.db #0x00	; 0
	.db #0x00	; 0
	.db #0x00	; 0
	.db #0x00	; 0
	.db #0x00	; 0
	.db #0x00	; 0
	.db #0x00	; 0
	.db #0x00	; 0
	.db #0x00	; 0
	.db #0x00	; 0
	.db #0x00	; 0
	.db #0x00	; 0
	.db #0x00	; 0
	.db #0x00	; 0
	.db #0x00	; 0
	.db #0x00	; 0
	.db #0x00	; 0
	.db #0x00	; 0
	.db #0x00	; 0
	.db #0x00	; 0
	.db #0x00	; 0
	.db #0x00	; 0
	.db #0x00	; 0
	.db #0x00	; 0
	.db #0x00	; 0
	.db #0x00	; 0
	.db #0x00	; 0
	.db #0x00	; 0
	.db #0x00	; 0
	.db #0x00	; 0
	.db #0x00	; 0
	.db #0x00	; 0
	.db #0x00	; 0
	.db #0x00	; 0
	.db #0x00	; 0
	.db #0x00	; 0
	.db #0x00	; 0
	.db #0x00	; 0
	.db #0x00	; 0
	.db #0x00	; 0
	.db #0x00	; 0
	.db #0x00	; 0
	.db #0x00	; 0
	.db #0x00	; 0
	.db #0x00	; 0
	.db #0x00	; 0
	.db #0x00	; 0
	.db #0x00	; 0
	.db #0x00	; 0
	.db #0x00	; 0
	.db #0x00	; 0
	.db #0x00	; 0
	.db #0x00	; 0
	.db #0x00	; 0
	.db #0x00	; 0
	.db #0x00	; 0
	.db #0x00	; 0
	.db #0x00	; 0
	.db #0x00	; 0
	.db #0x00	; 0
	.db #0x00	; 0
	.db #0x00	; 0
	.db #0x00	; 0
	.db #0x00	; 0
	.db #0x00	; 0
	.db #0x00	; 0
	.db #0x00	; 0
	.db #0x00	; 0
	.db #0x00	; 0
	.db #0x00	; 0
	.db #0x00	; 0
	.db #0x00	; 0
	.db #0x00	; 0
	.db #0x00	; 0
	.db #0x00	; 0
	.db #0x00	; 0
	.db #0x00	; 0
	.db #0x00	; 0
	.db #0x00	; 0
	.db #0x00	; 0
	.db #0x00	; 0
	.db #0x00	; 0
	.db #0x00	; 0
	.db #0x00	; 0
	.db #0x00	; 0
	.db #0x00	; 0
	.db #0x00	; 0
	.db #0x00	; 0
	.db #0x00	; 0
	.db #0x00	; 0
	.db #0x00	; 0
	.db #0x00	; 0
	.db #0x00	; 0
	.db #0x00	; 0
	.db #0x00	; 0
	.db #0x00	; 0
	.db #0x00	; 0
	.db #0x00	; 0
	.db #0x00	; 0
	.db #0x00	; 0
	.db #0x00	; 0
	.db #0x00	; 0
	.db #0x00	; 0
	.db #0x00	; 0
	.db #0x00	; 0
	.db #0x00	; 0
	.db #0x00	; 0
	.db #0x00	; 0
	.db #0x00	; 0
	.db #0x00	; 0
	.db #0x00	; 0
	.db #0x00	; 0
	.db #0x00	; 0
__xinit__Amogus:
	.db #0x00	; 0
	.db #0x00	; 0
	.db #0x00	; 0
	.db #0x00	; 0
	.db #0x00	; 0
	.db #0x00	; 0
	.db #0x00	; 0
	.db #0x00	; 0
	.db #0x00	; 0
	.db #0x00	; 0
	.db #0x00	; 0
	.db #0x00	; 0
	.db #0x07	; 7
	.db #0x00	; 0
	.db #0x0f	; 15
	.db #0x00	; 0
	.db #0x01	; 1
	.db #0x00	; 0
	.db #0x01	; 1
	.db #0x00	; 0
	.db #0x0f	; 15
	.db #0x00	; 0
	.db #0x0f	; 15
	.db #0x00	; 0
	.db #0x0f	; 15
	.db #0x00	; 0
	.db #0x0f	; 15
	.db #0x00	; 0
	.db #0x0f	; 15
	.db #0x00	; 0
	.db #0x0c	; 12
	.db #0x00	; 0
	.db #0x00	; 0
	.db #0x00	; 0
	.db #0x00	; 0
	.db #0x00	; 0
	.db #0x00	; 0
	.db #0x00	; 0
	.db #0x00	; 0
	.db #0x00	; 0
	.db #0x00	; 0
	.db #0x00	; 0
	.db #0x00	; 0
	.db #0x00	; 0
	.db #0xe0	; 224
	.db #0x00	; 0
	.db #0xf0	; 240
	.db #0x0c	; 12
	.db #0xf8	; 248
	.db #0x06	; 6
	.db #0xfc	; 252
	.db #0x02	; 2
	.db #0xfc	; 252
	.db #0x02	; 2
	.db #0xfc	; 252
	.db #0x02	; 2
	.db #0xf8	; 248
	.db #0x06	; 6
	.db #0xf0	; 240
	.db #0x0c	; 12
	.db #0xf0	; 240
	.db #0x00	; 0
	.db #0x30	; 48	'0'
	.db #0x00	; 0
	.db #0x00	; 0
	.db #0x00	; 0
	.db #0x00	; 0
	.db #0x00	; 0
	.db #0x00	; 0
	.db #0x00	; 0
	.db #0x00	; 0
	.db #0x00	; 0
	.db #0x00	; 0
	.db #0x00	; 0
	.db #0x00	; 0
	.db #0x00	; 0
	.db #0x07	; 7
	.db #0x00	; 0
	.db #0x0f	; 15
	.db #0x00	; 0
	.db #0x01	; 1
	.db #0x00	; 0
	.db #0x01	; 1
	.db #0x00	; 0
	.db #0x0f	; 15
	.db #0x00	; 0
	.db #0x0f	; 15
	.db #0x00	; 0
	.db #0x0f	; 15
	.db #0x00	; 0
	.db #0x0f	; 15
	.db #0x00	; 0
	.db #0x0f	; 15
	.db #0x00	; 0
	.db #0x18	; 24
	.db #0x00	; 0
	.db #0x00	; 0
	.db #0x00	; 0
	.db #0x00	; 0
	.db #0x00	; 0
	.db #0x00	; 0
	.db #0x00	; 0
	.db #0x00	; 0
	.db #0x00	; 0
	.db #0x00	; 0
	.db #0x00	; 0
	.db #0x00	; 0
	.db #0x00	; 0
	.db #0xe0	; 224
	.db #0x00	; 0
	.db #0xf0	; 240
	.db #0x0c	; 12
	.db #0xf8	; 248
	.db #0x06	; 6
	.db #0xfc	; 252
	.db #0x02	; 2
	.db #0xfc	; 252
	.db #0x02	; 2
	.db #0xfc	; 252
	.db #0x02	; 2
	.db #0xf8	; 248
	.db #0x06	; 6
	.db #0xf0	; 240
	.db #0x0c	; 12
	.db #0xf0	; 240
	.db #0x00	; 0
	.db #0x18	; 24
	.db #0x00	; 0
	.db #0x00	; 0
	.db #0x00	; 0
	.db #0x00	; 0
	.db #0x00	; 0
	.db #0x00	; 0
	.db #0x00	; 0
	.db #0x00	; 0
	.db #0x00	; 0
	.db #0x00	; 0
	.db #0x00	; 0
	.db #0x00	; 0
	.db #0x00	; 0
	.db #0x07	; 7
	.db #0x00	; 0
	.db #0x0f	; 15
	.db #0x00	; 0
	.db #0x01	; 1
	.db #0x00	; 0
	.db #0x01	; 1
	.db #0x00	; 0
	.db #0x0f	; 15
	.db #0x00	; 0
	.db #0x0f	; 15
	.db #0x00	; 0
	.db #0x0f	; 15
	.db #0x00	; 0
	.db #0x0f	; 15
	.db #0x00	; 0
	.db #0x0f	; 15
	.db #0x00	; 0
	.db #0x0c	; 12
	.db #0x00	; 0
	.db #0x00	; 0
	.db #0x00	; 0
	.db #0x00	; 0
	.db #0x00	; 0
	.db #0x00	; 0
	.db #0x00	; 0
	.db #0x00	; 0
	.db #0x00	; 0
	.db #0x00	; 0
	.db #0x00	; 0
	.db #0x00	; 0
	.db #0x00	; 0
	.db #0xe0	; 224
	.db #0x00	; 0
	.db #0xe0	; 224
	.db #0x1c	; 28
	.db #0xfc	; 252
	.db #0x02	; 2
	.db #0xfc	; 252
	.db #0x02	; 2
	.db #0xfc	; 252
	.db #0x02	; 2
	.db #0xfc	; 252
	.db #0x02	; 2
	.db #0xf8	; 248
	.db #0x06	; 6
	.db #0xe0	; 224
	.db #0x1c	; 28
	.db #0xf0	; 240
	.db #0x00	; 0
	.db #0x18	; 24
	.db #0x00	; 0
	.db #0x00	; 0
	.db #0x00	; 0
	.db #0x00	; 0
	.db #0x00	; 0
	.db #0x00	; 0
	.db #0x00	; 0
	.db #0x00	; 0
	.db #0x00	; 0
	.db #0x00	; 0
	.db #0x00	; 0
	.db #0x00	; 0
	.db #0x00	; 0
	.db #0x00	; 0
	.db #0x00	; 0
	.db #0x00	; 0
	.db #0x00	; 0
	.db #0x00	; 0
	.db #0x00	; 0
	.db #0x00	; 0
	.db #0x00	; 0
	.db #0x00	; 0
	.db #0x00	; 0
	.db #0x00	; 0
	.db #0x00	; 0
	.db #0x00	; 0
	.db #0x00	; 0
	.db #0x00	; 0
	.db #0x00	; 0
	.db #0x00	; 0
	.db #0x00	; 0
	.db #0x00	; 0
	.db #0x00	; 0
	.db #0x00	; 0
	.db #0x00	; 0
	.db #0x00	; 0
	.db #0x00	; 0
	.db #0x00	; 0
	.db #0x00	; 0
	.db #0x00	; 0
	.db #0x00	; 0
	.db #0x00	; 0
	.db #0x00	; 0
	.db #0x00	; 0
	.db #0x00	; 0
	.db #0x00	; 0
	.db #0x00	; 0
	.db #0x00	; 0
	.db #0x00	; 0
	.db #0x00	; 0
	.db #0x00	; 0
	.db #0x00	; 0
	.db #0x00	; 0
	.db #0x00	; 0
	.db #0x00	; 0
	.db #0x00	; 0
	.db #0x00	; 0
	.db #0x00	; 0
	.db #0x00	; 0
	.db #0x00	; 0
	.db #0x00	; 0
	.db #0x00	; 0
	.db #0x00	; 0
	.db #0x00	; 0
	.db #0x00	; 0
	.db #0x00	; 0
	.db #0x00	; 0
	.db #0x00	; 0
	.db #0x00	; 0
	.db #0x00	; 0
	.db #0x00	; 0
	.db #0x00	; 0
	.db #0x00	; 0
	.db #0x00	; 0
	.db #0x00	; 0
	.db #0x00	; 0
	.db #0x00	; 0
	.db #0x00	; 0
	.db #0x00	; 0
	.db #0x00	; 0
	.db #0x00	; 0
	.db #0x00	; 0
	.db #0x00	; 0
	.db #0x00	; 0
	.db #0x00	; 0
	.db #0x00	; 0
	.db #0x00	; 0
	.db #0x00	; 0
	.db #0x00	; 0
	.db #0x00	; 0
	.db #0x00	; 0
	.db #0x00	; 0
	.db #0x00	; 0
	.db #0x00	; 0
	.db #0x00	; 0
	.db #0x00	; 0
	.db #0x00	; 0
	.db #0x00	; 0
	.db #0x00	; 0
	.db #0x00	; 0
	.db #0x00	; 0
	.db #0x00	; 0
	.db #0x00	; 0
	.db #0x00	; 0
	.db #0x00	; 0
	.db #0x00	; 0
	.db #0x00	; 0
	.db #0x00	; 0
	.db #0x00	; 0
	.db #0x00	; 0
	.db #0x00	; 0
	.db #0x00	; 0
	.db #0x00	; 0
	.db #0x00	; 0
	.db #0x00	; 0
	.db #0x00	; 0
	.db #0x00	; 0
	.db #0x00	; 0
	.db #0x00	; 0
	.db #0x00	; 0
	.db #0x00	; 0
	.db #0x00	; 0
	.db #0x00	; 0
	.db #0x00	; 0
	.db #0x00	; 0
	.db #0x00	; 0
	.db #0x00	; 0
	.db #0x00	; 0
	.db #0x00	; 0
	.db #0x00	; 0
	.db #0x00	; 0
	.db #0x00	; 0
	.db #0x00	; 0
	.db #0x00	; 0
	.db #0x00	; 0
	.db #0x00	; 0
	.db #0x00	; 0
	.db #0x00	; 0
	.db #0x00	; 0
	.db #0x00	; 0
	.db #0x00	; 0
	.db #0x00	; 0
	.db #0x00	; 0
	.db #0x00	; 0
	.db #0x00	; 0
	.db #0x00	; 0
	.db #0x00	; 0
	.db #0x00	; 0
	.db #0x00	; 0
	.db #0x00	; 0
	.db #0x00	; 0
	.db #0x00	; 0
	.db #0x00	; 0
	.db #0x00	; 0
	.db #0x00	; 0
	.db #0x00	; 0
	.db #0x00	; 0
	.db #0x00	; 0
	.db #0x00	; 0
	.db #0x00	; 0
	.db #0x00	; 0
	.db #0x00	; 0
	.db #0x00	; 0
	.db #0x00	; 0
	.db #0x00	; 0
	.db #0x00	; 0
	.db #0x00	; 0
	.db #0x00	; 0
	.db #0x00	; 0
	.db #0x00	; 0
	.db #0x00	; 0
	.db #0x00	; 0
	.db #0x00	; 0
	.db #0x00	; 0
	.db #0x00	; 0
	.db #0x00	; 0
	.db #0x00	; 0
	.db #0x00	; 0
	.db #0x00	; 0
	.db #0x00	; 0
	.db #0x00	; 0
	.db #0x00	; 0
	.db #0x00	; 0
	.db #0x00	; 0
	.db #0x00	; 0
	.db #0x00	; 0
	.db #0x00	; 0
	.db #0x00	; 0
	.db #0x00	; 0
	.db #0x00	; 0
	.db #0x00	; 0
	.db #0x00	; 0
	.db #0x00	; 0
	.db #0x00	; 0
	.db #0x00	; 0
	.db #0x00	; 0
	.db #0x00	; 0
	.db #0x00	; 0
	.db #0x00	; 0
	.db #0x00	; 0
	.db #0x00	; 0
	.db #0x00	; 0
	.db #0x00	; 0
	.db #0x00	; 0
	.db #0x00	; 0
	.db #0x00	; 0
	.db #0x00	; 0
	.db #0x00	; 0
	.db #0x00	; 0
	.db #0x00	; 0
	.db #0x00	; 0
	.db #0x00	; 0
	.db #0x00	; 0
	.db #0x00	; 0
	.db #0x00	; 0
	.db #0x00	; 0
	.db #0x00	; 0
	.db #0x00	; 0
	.db #0x00	; 0
	.db #0x00	; 0
	.db #0x00	; 0
	.db #0x00	; 0
	.db #0x00	; 0
	.db #0x00	; 0
	.db #0x00	; 0
	.db #0x00	; 0
	.db #0x00	; 0
	.db #0x00	; 0
	.db #0x00	; 0
	.db #0x00	; 0
	.db #0x00	; 0
	.db #0x00	; 0
	.db #0x00	; 0
	.db #0x00	; 0
	.db #0x00	; 0
	.db #0x00	; 0
	.db #0x00	; 0
	.db #0x00	; 0
	.db #0x00	; 0
	.db #0x00	; 0
	.db #0x00	; 0
	.db #0x00	; 0
	.db #0x00	; 0
	.db #0x00	; 0
	.db #0x00	; 0
	.db #0x00	; 0
	.db #0x00	; 0
	.db #0x00	; 0
	.db #0x00	; 0
	.db #0x00	; 0
	.db #0x00	; 0
	.db #0x00	; 0
	.db #0x00	; 0
	.db #0x00	; 0
	.db #0x00	; 0
	.db #0x00	; 0
	.db #0x00	; 0
	.db #0x00	; 0
	.db #0x00	; 0
	.db #0x00	; 0
	.db #0x00	; 0
	.db #0x00	; 0
	.db #0x00	; 0
	.db #0x00	; 0
	.db #0x00	; 0
	.db #0x00	; 0
	.db #0x00	; 0
	.db #0x00	; 0
	.db #0x00	; 0
	.db #0x00	; 0
	.db #0x00	; 0
	.db #0x00	; 0
	.db #0x00	; 0
	.db #0x00	; 0
	.db #0x00	; 0
	.db #0x00	; 0
	.db #0x00	; 0
	.db #0x00	; 0
	.db #0x00	; 0
	.db #0x00	; 0
	.db #0x00	; 0
	.db #0x00	; 0
	.db #0x00	; 0
	.db #0x00	; 0
	.db #0x00	; 0
	.db #0x00	; 0
	.db #0x00	; 0
	.db #0x00	; 0
	.db #0x00	; 0
	.db #0x00	; 0
	.db #0x00	; 0
	.db #0x00	; 0
	.db #0x00	; 0
	.db #0x00	; 0
	.db #0x00	; 0
	.db #0x00	; 0
	.db #0x00	; 0
	.db #0x00	; 0
	.db #0x00	; 0
	.db #0x00	; 0
	.db #0x00	; 0
	.db #0x00	; 0
	.db #0x00	; 0
	.db #0x00	; 0
	.db #0x00	; 0
	.db #0x00	; 0
	.db #0x00	; 0
	.db #0x00	; 0
	.db #0x00	; 0
	.db #0x00	; 0
	.db #0x00	; 0
	.db #0x00	; 0
	.db #0x00	; 0
	.db #0x00	; 0
	.db #0x00	; 0
	.db #0x00	; 0
	.db #0x00	; 0
	.db #0x00	; 0
	.db #0x00	; 0
	.db #0x00	; 0
	.db #0x00	; 0
	.db #0x00	; 0
	.db #0x00	; 0
	.db #0x00	; 0
	.db #0x00	; 0
	.db #0x00	; 0
	.db #0x00	; 0
	.db #0x00	; 0
	.db #0x00	; 0
	.db #0x00	; 0
	.db #0x00	; 0
	.db #0x00	; 0
	.db #0x00	; 0
	.db #0x00	; 0
	.db #0x00	; 0
	.db #0x00	; 0
	.db #0x00	; 0
	.db #0x00	; 0
	.db #0x00	; 0
	.db #0x00	; 0
	.db #0x00	; 0
	.db #0x00	; 0
	.db #0x00	; 0
	.db #0x00	; 0
	.db #0x00	; 0
	.db #0x00	; 0
	.db #0x00	; 0
	.db #0x00	; 0
	.db #0x00	; 0
	.db #0x00	; 0
	.db #0x00	; 0
	.db #0x00	; 0
	.db #0x00	; 0
	.db #0x00	; 0
	.db #0x00	; 0
	.db #0x00	; 0
	.db #0x00	; 0
	.db #0x00	; 0
	.db #0x00	; 0
	.db #0x00	; 0
	.db #0x00	; 0
	.db #0x00	; 0
	.db #0x00	; 0
	.db #0x00	; 0
	.db #0x00	; 0
	.db #0x00	; 0
	.db #0x00	; 0
	.db #0x00	; 0
	.db #0x00	; 0
	.db #0x00	; 0
	.db #0x00	; 0
	.db #0x00	; 0
	.db #0x00	; 0
	.db #0x00	; 0
	.db #0x00	; 0
	.db #0x00	; 0
	.db #0x00	; 0
	.db #0x00	; 0
	.db #0x00	; 0
	.db #0x00	; 0
	.db #0x00	; 0
	.db #0x00	; 0
	.db #0x00	; 0
	.db #0x00	; 0
	.db #0x00	; 0
	.db #0x00	; 0
	.db #0x00	; 0
	.db #0x00	; 0
	.db #0x00	; 0
	.db #0x00	; 0
	.db #0x00	; 0
	.db #0x00	; 0
	.db #0x00	; 0
	.db #0x00	; 0
	.db #0x00	; 0
	.db #0x00	; 0
	.db #0x00	; 0
	.db #0x00	; 0
	.db #0x00	; 0
	.db #0x00	; 0
	.db #0x00	; 0
	.db #0x00	; 0
	.db #0x00	; 0
	.db #0x00	; 0
	.db #0x00	; 0
	.db #0x00	; 0
	.db #0x00	; 0
	.db #0x00	; 0
	.db #0x00	; 0
	.db #0x00	; 0
	.db #0x00	; 0
	.db #0x00	; 0
	.db #0x00	; 0
	.db #0x00	; 0
	.db #0x00	; 0
	.db #0x00	; 0
	.db #0x00	; 0
	.db #0x00	; 0
	.db #0x00	; 0
	.db #0x00	; 0
	.db #0x00	; 0
	.db #0x00	; 0
	.db #0x00	; 0
	.db #0x00	; 0
	.db #0x00	; 0
	.db #0x00	; 0
	.db #0x00	; 0
	.db #0x00	; 0
	.db #0x00	; 0
	.db #0x00	; 0
	.db #0x00	; 0
	.db #0x00	; 0
	.db #0x00	; 0
	.db #0x00	; 0
	.db #0x00	; 0
	.db #0x00	; 0
	.db #0x00	; 0
	.db #0x00	; 0
	.db #0x00	; 0
	.db #0x00	; 0
	.db #0x00	; 0
	.db #0x00	; 0
	.db #0x00	; 0
	.db #0x00	; 0
	.db #0x00	; 0
	.db #0x00	; 0
	.db #0x00	; 0
	.db #0x00	; 0
	.db #0x00	; 0
	.db #0x00	; 0
	.db #0x00	; 0
	.db #0x00	; 0
	.db #0x00	; 0
	.db #0x00	; 0
	.db #0x00	; 0
	.db #0x00	; 0
	.db #0x00	; 0
	.db #0x00	; 0
	.db #0x00	; 0
	.db #0x00	; 0
	.db #0x00	; 0
	.db #0x00	; 0
	.db #0x00	; 0
	.db #0x00	; 0
	.db #0x00	; 0
	.db #0x00	; 0
	.db #0x00	; 0
	.db #0x00	; 0
	.db #0x00	; 0
	.db #0x00	; 0
	.db #0x00	; 0
	.db #0x00	; 0
	.db #0x00	; 0
	.db #0x00	; 0
	.db #0x00	; 0
	.db #0x00	; 0
	.db #0x00	; 0
	.db #0x00	; 0
	.db #0x00	; 0
	.db #0x00	; 0
	.db #0x00	; 0
	.db #0x00	; 0
	.db #0x00	; 0
	.db #0x00	; 0
	.db #0x00	; 0
	.db #0x00	; 0
	.db #0x00	; 0
	.db #0x00	; 0
	.db #0x00	; 0
	.db #0x00	; 0
	.db #0x00	; 0
	.db #0x00	; 0
	.db #0x00	; 0
	.db #0x00	; 0
	.db #0x00	; 0
	.db #0x00	; 0
	.db #0x00	; 0
	.db #0x00	; 0
	.db #0x00	; 0
	.db #0x00	; 0
	.db #0x00	; 0
	.db #0x00	; 0
	.db #0x00	; 0
	.db #0x00	; 0
	.db #0x00	; 0
	.db #0x00	; 0
	.db #0x00	; 0
	.db #0x00	; 0
	.db #0x00	; 0
	.db #0x00	; 0
	.db #0x00	; 0
	.db #0x00	; 0
	.db #0x00	; 0
	.db #0x00	; 0
	.db #0x00	; 0
	.db #0x00	; 0
	.db #0x00	; 0
	.db #0x00	; 0
	.db #0x00	; 0
	.db #0x00	; 0
	.db #0x00	; 0
	.db #0x00	; 0
	.db #0x00	; 0
	.db #0x00	; 0
	.db #0x00	; 0
	.db #0x00	; 0
	.db #0x00	; 0
	.db #0x00	; 0
	.db #0x00	; 0
	.db #0x00	; 0
	.db #0x00	; 0
	.db #0x00	; 0
	.db #0x00	; 0
	.db #0x00	; 0
	.db #0x00	; 0
	.db #0x00	; 0
	.db #0x00	; 0
	.db #0x00	; 0
	.db #0x00	; 0
	.db #0x00	; 0
	.db #0x00	; 0
	.db #0x00	; 0
	.db #0x00	; 0
	.db #0x00	; 0
	.db #0x00	; 0
	.db #0x00	; 0
	.db #0x00	; 0
	.db #0x00	; 0
	.db #0x00	; 0
	.db #0x00	; 0
	.db #0x00	; 0
	.db #0x00	; 0
	.db #0x00	; 0
	.db #0x00	; 0
	.db #0x00	; 0
	.db #0x00	; 0
	.db #0x00	; 0
	.db #0x00	; 0
	.db #0x00	; 0
	.db #0x00	; 0
	.db #0x00	; 0
	.db #0x00	; 0
	.db #0x00	; 0
	.db #0x00	; 0
	.db #0x00	; 0
	.db #0x00	; 0
	.db #0x00	; 0
	.db #0x00	; 0
	.db #0x00	; 0
	.db #0x00	; 0
	.db #0x00	; 0
	.db #0x00	; 0
	.db #0x00	; 0
	.db #0x00	; 0
	.db #0x00	; 0
	.db #0x00	; 0
	.db #0x00	; 0
__xinit__heart:
	.db #0x00	; 0
	.db #0x30	; 48	'0'
	.db #0x00	; 0
	.db #0x30	; 48	'0'
	.db #0x07	; 7
	.db #0x60	; 96
	.db #0x04	; 4
	.db #0x78	; 120	'x'
	.db #0x00	; 0
	.db #0x60	; 96
	.db #0x00	; 0
	.db #0x40	; 64
	.db #0x00	; 0
	.db #0x40	; 64
	.db #0x00	; 0
	.db #0x60	; 96
	.db #0x00	; 0
	.db #0x00	; 0
	.db #0x00	; 0
	.db #0x00	; 0
	.db #0x00	; 0
	.db #0x6c	; 108	'l'
	.db #0x68	; 104	'h'
	.db #0x92	; 146
	.db #0x38	; 56	'8'
	.db #0x44	; 68	'D'
	.db #0x10	; 16
	.db #0x28	; 40
	.db #0x00	; 0
	.db #0x10	; 16
	.db #0x00	; 0
	.db #0x00	; 0
__xinit__bgmap:
	.db #0x08	; 8
	.db #0x08	; 8
	.db #0x08	; 8
	.db #0x08	; 8
	.db #0x08	; 8
	.db #0x08	; 8
	.db #0x08	; 8
	.db #0x08	; 8
	.db #0x08	; 8
	.db #0x08	; 8
	.db #0x08	; 8
	.db #0x08	; 8
	.db #0x08	; 8
	.db #0x08	; 8
	.db #0x08	; 8
	.db #0x06	; 6
	.db #0x08	; 8
	.db #0x08	; 8
	.db #0x07	; 7
	.db #0x08	; 8
	.db #0x08	; 8
	.db #0x08	; 8
	.db #0x08	; 8
	.db #0x08	; 8
	.db #0x08	; 8
	.db #0x08	; 8
	.db #0x07	; 7
	.db #0x08	; 8
	.db #0x08	; 8
	.db #0x08	; 8
	.db #0x08	; 8
	.db #0x07	; 7
	.db #0x08	; 8
	.db #0x08	; 8
	.db #0x08	; 8
	.db #0x08	; 8
	.db #0x08	; 8
	.db #0x07	; 7
	.db #0x08	; 8
	.db #0x08	; 8
	.db #0x08	; 8
	.db #0x06	; 6
	.db #0x08	; 8
	.db #0x08	; 8
	.db #0x08	; 8
	.db #0x08	; 8
	.db #0x08	; 8
	.db #0x06	; 6
	.db #0x08	; 8
	.db #0x08	; 8
	.db #0x08	; 8
	.db #0x08	; 8
	.db #0x07	; 7
	.db #0x08	; 8
	.db #0x08	; 8
	.db #0x08	; 8
	.db #0x08	; 8
	.db #0x08	; 8
	.db #0x08	; 8
	.db #0x08	; 8
	.db #0x08	; 8
	.db #0x08	; 8
	.db #0x08	; 8
	.db #0x08	; 8
	.db #0x08	; 8
	.db #0x08	; 8
	.db #0x08	; 8
	.db #0x08	; 8
	.db #0x08	; 8
	.db #0x08	; 8
	.db #0x08	; 8
	.db #0x08	; 8
	.db #0x08	; 8
	.db #0x08	; 8
	.db #0x08	; 8
	.db #0x08	; 8
	.db #0x08	; 8
	.db #0x08	; 8
	.db #0x08	; 8
	.db #0x06	; 6
	.db #0x08	; 8
	.db #0x08	; 8
	.db #0x08	; 8
	.db #0x08	; 8
	.db #0x08	; 8
	.db #0x08	; 8
	.db #0x08	; 8
	.db #0x08	; 8
	.db #0x08	; 8
	.db #0x08	; 8
	.db #0x08	; 8
	.db #0x08	; 8
	.db #0x08	; 8
	.db #0x08	; 8
	.db #0x08	; 8
	.db #0x08	; 8
	.db #0x08	; 8
	.db #0x08	; 8
	.db #0x08	; 8
	.db #0x08	; 8
	.db #0x08	; 8
	.db #0x08	; 8
	.db #0x08	; 8
	.db #0x06	; 6
	.db #0x08	; 8
	.db #0x08	; 8
	.db #0x08	; 8
	.db #0x08	; 8
	.db #0x06	; 6
	.db #0x08	; 8
	.db #0x08	; 8
	.db #0x08	; 8
	.db #0x08	; 8
	.db #0x08	; 8
	.db #0x08	; 8
	.db #0x08	; 8
	.db #0x06	; 6
	.db #0x08	; 8
	.db #0x08	; 8
	.db #0x08	; 8
	.db #0x08	; 8
	.db #0x08	; 8
	.db #0x08	; 8
	.db #0x08	; 8
	.db #0x07	; 7
	.db #0x08	; 8
	.db #0x08	; 8
	.db #0x08	; 8
	.db #0x08	; 8
	.db #0x08	; 8
	.db #0x06	; 6
	.db #0x08	; 8
	.db #0x08	; 8
	.db #0x08	; 8
	.db #0x08	; 8
	.db #0x08	; 8
	.db #0x08	; 8
	.db #0x08	; 8
	.db #0x08	; 8
	.db #0x07	; 7
	.db #0x08	; 8
	.db #0x08	; 8
	.db #0x08	; 8
	.db #0x08	; 8
	.db #0x08	; 8
	.db #0x08	; 8
	.db #0x08	; 8
	.db #0x08	; 8
	.db #0x08	; 8
	.db #0x08	; 8
	.db #0x08	; 8
	.db #0x08	; 8
	.db #0x07	; 7
	.db #0x08	; 8
	.db #0x08	; 8
	.db #0x08	; 8
	.db #0x08	; 8
	.db #0x08	; 8
	.db #0x08	; 8
	.db #0x08	; 8
	.db #0x08	; 8
	.db #0x08	; 8
	.db #0x08	; 8
	.db #0x08	; 8
	.db #0x08	; 8
	.db #0x08	; 8
	.db #0x08	; 8
	.db #0x07	; 7
	.db #0x08	; 8
	.db #0x08	; 8
	.db #0x08	; 8
	.db #0x08	; 8
	.db #0x08	; 8
	.db #0x08	; 8
	.db #0x08	; 8
	.db #0x08	; 8
	.db #0x06	; 6
	.db #0x08	; 8
	.db #0x08	; 8
	.db #0x08	; 8
	.db #0x08	; 8
	.db #0x08	; 8
	.db #0x08	; 8
	.db #0x08	; 8
	.db #0x08	; 8
	.db #0x07	; 7
	.db #0x08	; 8
	.db #0x08	; 8
	.db #0x08	; 8
	.db #0x08	; 8
	.db #0x08	; 8
	.db #0x08	; 8
	.db #0x08	; 8
	.db #0x08	; 8
	.db #0x08	; 8
	.db #0x08	; 8
	.db #0x08	; 8
	.db #0x08	; 8
	.db #0x08	; 8
	.db #0x07	; 7
	.db #0x08	; 8
	.db #0x08	; 8
	.db #0x08	; 8
	.db #0x08	; 8
	.db #0x08	; 8
	.db #0x08	; 8
	.db #0x08	; 8
	.db #0x08	; 8
	.db #0x08	; 8
	.db #0x08	; 8
	.db #0x08	; 8
	.db #0x07	; 7
	.db #0x08	; 8
	.db #0x08	; 8
	.db #0x08	; 8
	.db #0x08	; 8
	.db #0x08	; 8
	.db #0x08	; 8
	.db #0x08	; 8
	.db #0x08	; 8
	.db #0x08	; 8
	.db #0x08	; 8
	.db #0x08	; 8
	.db #0x08	; 8
	.db #0x08	; 8
	.db #0x08	; 8
	.db #0x08	; 8
	.db #0x08	; 8
	.db #0x08	; 8
	.db #0x08	; 8
	.db #0x08	; 8
	.db #0x08	; 8
	.db #0x08	; 8
	.db #0x08	; 8
	.db #0x08	; 8
	.db #0x08	; 8
	.db #0x07	; 7
	.db #0x08	; 8
	.db #0x08	; 8
	.db #0x08	; 8
	.db #0x08	; 8
	.db #0x08	; 8
	.db #0x08	; 8
	.db #0x06	; 6
	.db #0x08	; 8
	.db #0x08	; 8
	.db #0x08	; 8
	.db #0x08	; 8
	.db #0x08	; 8
	.db #0x08	; 8
	.db #0x08	; 8
	.db #0x08	; 8
	.db #0x08	; 8
	.db #0x08	; 8
	.db #0x08	; 8
	.db #0x08	; 8
	.db #0x08	; 8
	.db #0x08	; 8
	.db #0x08	; 8
	.db #0x07	; 7
	.db #0x08	; 8
	.db #0x08	; 8
	.db #0x08	; 8
	.db #0x06	; 6
	.db #0x08	; 8
	.db #0x08	; 8
	.db #0x08	; 8
	.db #0x08	; 8
	.db #0x08	; 8
	.db #0x08	; 8
	.db #0x08	; 8
	.db #0x06	; 6
	.db #0x08	; 8
	.db #0x08	; 8
	.db #0x08	; 8
	.db #0x08	; 8
	.db #0x08	; 8
	.db #0x08	; 8
	.db #0x08	; 8
	.db #0x08	; 8
	.db #0x08	; 8
	.db #0x08	; 8
	.db #0x08	; 8
	.db #0x08	; 8
	.db #0x08	; 8
	.db #0x08	; 8
	.db #0x07	; 7
	.db #0x08	; 8
	.db #0x08	; 8
	.db #0x06	; 6
	.db #0x08	; 8
	.db #0x08	; 8
	.db #0x08	; 8
	.db #0x08	; 8
	.db #0x07	; 7
	.db #0x08	; 8
	.db #0x08	; 8
	.db #0x08	; 8
	.db #0x08	; 8
	.db #0x08	; 8
	.db #0x08	; 8
	.db #0x08	; 8
	.db #0x08	; 8
	.db #0x08	; 8
	.db #0x08	; 8
	.db #0x08	; 8
	.db #0x08	; 8
	.db #0x06	; 6
	.db #0x08	; 8
	.db #0x08	; 8
	.db #0x08	; 8
	.db #0x08	; 8
	.db #0x08	; 8
	.db #0x08	; 8
	.db #0x08	; 8
	.db #0x08	; 8
	.db #0x08	; 8
	.db #0x08	; 8
	.db #0x08	; 8
	.db #0x08	; 8
	.db #0x08	; 8
	.db #0x07	; 7
	.db #0x08	; 8
	.db #0x08	; 8
	.db #0x08	; 8
	.db #0x08	; 8
	.db #0x08	; 8
	.db #0x08	; 8
	.db #0x08	; 8
	.db #0x08	; 8
	.db #0x08	; 8
	.db #0x08	; 8
	.db #0x08	; 8
	.db #0x08	; 8
	.db #0x08	; 8
	.db #0x08	; 8
	.db #0x08	; 8
	.db #0x08	; 8
	.db #0x08	; 8
	.db #0x08	; 8
	.db #0x08	; 8
	.db #0x08	; 8
	.db #0x08	; 8
	.db #0x08	; 8
	.db #0x08	; 8
	.db #0x08	; 8
	.db #0x08	; 8
	.db #0x08	; 8
	.db #0x08	; 8
	.db #0x08	; 8
	.db #0x07	; 7
	.db #0x08	; 8
	.db #0x08	; 8
	.db #0x08	; 8
	.db #0x08	; 8
	.db #0x06	; 6
	.db #0x08	; 8
	.db #0x08	; 8
	.db #0x08	; 8
	.db #0x07	; 7
	.db #0x08	; 8
	.db #0x08	; 8
	.db #0x08	; 8
	.db #0x08	; 8
	.db #0x08	; 8
	.db #0x08	; 8
	.db #0x08	; 8
	.db #0x08	; 8
	.db #0x08	; 8
	.db #0x08	; 8
	.db #0x08	; 8
	.db #0x08	; 8
	.db #0x08	; 8
	.db #0x08	; 8
	.db #0x08	; 8
	.db #0x08	; 8
	.db #0x08	; 8
	.db #0x08	; 8
	.db #0x07	; 7
	.db #0x08	; 8
	.db #0x08	; 8
	.db #0x08	; 8
	.db #0x08	; 8
	.db #0x08	; 8
	.db #0x07	; 7
	.db #0x08	; 8
	.db #0x08	; 8
	.db #0x08	; 8
	.db #0x08	; 8
	.db #0x08	; 8
	.db #0x08	; 8
	.db #0x08	; 8
	.db #0x08	; 8
	.db #0x08	; 8
	.db #0x08	; 8
	.db #0x08	; 8
	.db #0x08	; 8
	.db #0x08	; 8
	.db #0x08	; 8
	.db #0x08	; 8
	.db #0x08	; 8
	.db #0x08	; 8
	.db #0x08	; 8
	.db #0x08	; 8
	.db #0x06	; 6
	.db #0x08	; 8
	.db #0x08	; 8
	.db #0x08	; 8
	.db #0x08	; 8
	.db #0x07	; 7
	.db #0x08	; 8
	.db #0x08	; 8
	.db #0x08	; 8
	.db #0x08	; 8
	.db #0x06	; 6
	.db #0x08	; 8
	.db #0x08	; 8
	.db #0x08	; 8
	.db #0x08	; 8
	.db #0x08	; 8
	.db #0x08	; 8
	.db #0x06	; 6
	.db #0x08	; 8
	.db #0x08	; 8
	.db #0x08	; 8
	.db #0x08	; 8
	.db #0x08	; 8
	.db #0x06	; 6
	.db #0x08	; 8
	.db #0x08	; 8
	.db #0x08	; 8
	.db #0x08	; 8
	.db #0x08	; 8
	.db #0x08	; 8
	.db #0x08	; 8
	.db #0x08	; 8
	.db #0x08	; 8
	.db #0x08	; 8
	.db #0x08	; 8
	.db #0x08	; 8
	.db #0x08	; 8
	.db #0x08	; 8
	.db #0x08	; 8
	.db #0x08	; 8
	.db #0x08	; 8
	.db #0x08	; 8
	.db #0x08	; 8
	.db #0x08	; 8
	.db #0x08	; 8
	.db #0x08	; 8
	.db #0x08	; 8
	.db #0x08	; 8
	.db #0x08	; 8
	.db #0x08	; 8
	.db #0x08	; 8
	.db #0x08	; 8
	.db #0x08	; 8
	.db #0x08	; 8
	.db #0x08	; 8
	.db #0x08	; 8
	.db #0x08	; 8
	.db #0x08	; 8
	.db #0x08	; 8
	.db #0x08	; 8
	.db #0x08	; 8
	.db #0x08	; 8
	.db #0x08	; 8
	.db #0x08	; 8
	.db #0x08	; 8
	.db #0x08	; 8
	.db #0x08	; 8
	.db #0x08	; 8
	.db #0x08	; 8
	.db #0x06	; 6
	.db #0x08	; 8
	.db #0x08	; 8
	.db #0x08	; 8
	.db #0x06	; 6
	.db #0x08	; 8
	.db #0x08	; 8
	.db #0x08	; 8
	.db #0x08	; 8
	.db #0x08	; 8
	.db #0x08	; 8
	.db #0x08	; 8
	.db #0x08	; 8
	.db #0x08	; 8
	.db #0x08	; 8
	.db #0x08	; 8
	.db #0x08	; 8
	.db #0x08	; 8
	.db #0x08	; 8
	.db #0x08	; 8
	.db #0x08	; 8
	.db #0x08	; 8
	.db #0x08	; 8
	.db #0x08	; 8
	.db #0x08	; 8
	.db #0x08	; 8
	.db #0x08	; 8
	.db #0x08	; 8
	.db #0x08	; 8
	.db #0x08	; 8
	.db #0x08	; 8
	.db #0x08	; 8
	.db #0x08	; 8
	.db #0x08	; 8
	.db #0x08	; 8
	.db #0x08	; 8
	.db #0x08	; 8
	.db #0x08	; 8
	.db #0x08	; 8
	.db #0x08	; 8
	.db #0x08	; 8
	.db #0x08	; 8
	.db #0x08	; 8
	.db #0x08	; 8
	.db #0x08	; 8
	.db #0x08	; 8
	.db #0x08	; 8
	.db #0x04	; 4
	.db #0x05	; 5
	.db #0x04	; 4
	.db #0x05	; 5
	.db #0x04	; 4
	.db #0x05	; 5
	.db #0x04	; 4
	.db #0x05	; 5
	.db #0x04	; 4
	.db #0x05	; 5
	.db #0x04	; 4
	.db #0x05	; 5
	.db #0x04	; 4
	.db #0x05	; 5
	.db #0x04	; 4
	.db #0x05	; 5
	.db #0x04	; 4
	.db #0x05	; 5
	.db #0x04	; 4
	.db #0x05	; 5
	.db #0x04	; 4
	.db #0x05	; 5
	.db #0x04	; 4
	.db #0x05	; 5
	.db #0x04	; 4
	.db #0x05	; 5
	.db #0x04	; 4
	.db #0x05	; 5
	.db #0x04	; 4
	.db #0x05	; 5
	.db #0x04	; 4
	.db #0x05	; 5
	.db #0x04	; 4
	.db #0x05	; 5
	.db #0x04	; 4
	.db #0x05	; 5
	.db #0x04	; 4
	.db #0x05	; 5
	.db #0x04	; 4
	.db #0x05	; 5
	.db #0x00	; 0
	.db #0x00	; 0
	.db #0x00	; 0
	.db #0x00	; 0
	.db #0x00	; 0
	.db #0x00	; 0
	.db #0x00	; 0
	.db #0x00	; 0
	.db #0x00	; 0
	.db #0x00	; 0
	.db #0x00	; 0
	.db #0x00	; 0
	.db #0x00	; 0
	.db #0x00	; 0
	.db #0x00	; 0
	.db #0x00	; 0
	.db #0x00	; 0
	.db #0x00	; 0
	.db #0x00	; 0
	.db #0x00	; 0
	.db #0x00	; 0
	.db #0x00	; 0
	.db #0x00	; 0
	.db #0x00	; 0
	.db #0x00	; 0
	.db #0x00	; 0
	.db #0x00	; 0
	.db #0x00	; 0
	.db #0x00	; 0
	.db #0x00	; 0
	.db #0x00	; 0
	.db #0x00	; 0
	.db #0x00	; 0
	.db #0x00	; 0
	.db #0x00	; 0
	.db #0x00	; 0
	.db #0x00	; 0
	.db #0x00	; 0
	.db #0x00	; 0
	.db #0x00	; 0
	.db #0x00	; 0
	.db #0x00	; 0
	.db #0x00	; 0
	.db #0x00	; 0
	.db #0x00	; 0
	.db #0x00	; 0
	.db #0x00	; 0
	.db #0x00	; 0
	.db #0x00	; 0
	.db #0x00	; 0
	.db #0x00	; 0
	.db #0x00	; 0
	.db #0x00	; 0
	.db #0x00	; 0
	.db #0x00	; 0
	.db #0x00	; 0
	.db #0x00	; 0
	.db #0x00	; 0
	.db #0x00	; 0
	.db #0x00	; 0
	.db #0x00	; 0
	.db #0x00	; 0
	.db #0x00	; 0
	.db #0x00	; 0
	.db #0x00	; 0
	.db #0x00	; 0
	.db #0x00	; 0
	.db #0x00	; 0
	.db #0x00	; 0
	.db #0x00	; 0
	.db #0x00	; 0
	.db #0x00	; 0
	.db #0x00	; 0
	.db #0x00	; 0
	.db #0x00	; 0
	.db #0x00	; 0
	.db #0x00	; 0
	.db #0x00	; 0
	.db #0x00	; 0
	.db #0x00	; 0
	.db #0x00	; 0
	.db #0x00	; 0
	.db #0x00	; 0
	.db #0x00	; 0
	.db #0x00	; 0
	.db #0x00	; 0
	.db #0x00	; 0
	.db #0x00	; 0
	.db #0x00	; 0
	.db #0x00	; 0
	.db #0x00	; 0
	.db #0x00	; 0
	.db #0x00	; 0
	.db #0x00	; 0
	.db #0x00	; 0
	.db #0x00	; 0
	.db #0x00	; 0
	.db #0x00	; 0
	.db #0x00	; 0
	.db #0x00	; 0
	.db #0x00	; 0
	.db #0x00	; 0
	.db #0x00	; 0
	.db #0x00	; 0
	.db #0x00	; 0
	.db #0x00	; 0
	.db #0x00	; 0
	.db #0x00	; 0
	.db #0x00	; 0
	.db #0x00	; 0
	.db #0x00	; 0
	.db #0x00	; 0
	.db #0x00	; 0
	.db #0x00	; 0
	.db #0x00	; 0
	.db #0x00	; 0
	.db #0x00	; 0
	.db #0x00	; 0
	.db #0x00	; 0
	.db #0x00	; 0
	.db #0x00	; 0
	.db #0x00	; 0
	.db #0x00	; 0
	.db #0x00	; 0
	.db #0x00	; 0
	.db #0x00	; 0
	.db #0x00	; 0
	.db #0x00	; 0
	.db #0x00	; 0
	.db #0x00	; 0
	.db #0x00	; 0
	.db #0x00	; 0
	.db #0x00	; 0
	.db #0x00	; 0
	.db #0x00	; 0
	.db #0x00	; 0
	.db #0x00	; 0
	.db #0x00	; 0
	.db #0x00	; 0
	.db #0x00	; 0
	.db #0x00	; 0
	.db #0x00	; 0
	.db #0x00	; 0
	.db #0x00	; 0
	.db #0x00	; 0
	.db #0x00	; 0
	.db #0x00	; 0
	.db #0x00	; 0
	.db #0x00	; 0
	.db #0x00	; 0
	.db #0x00	; 0
	.db #0x00	; 0
	.db #0x00	; 0
	.db #0x00	; 0
	.db #0x00	; 0
	.db #0x00	; 0
	.db #0x00	; 0
	.db #0x00	; 0
	.db #0x00	; 0
	.db #0x00	; 0
__xinit__tile:
	.db #0x00	; 0
	.db #0x00	; 0
	.db #0x00	; 0
	.db #0x00	; 0
	.db #0x00	; 0
	.db #0x00	; 0
	.db #0x00	; 0
	.db #0x00	; 0
	.db #0x00	; 0
	.db #0x00	; 0
	.db #0x00	; 0
	.db #0x00	; 0
	.db #0x00	; 0
	.db #0x00	; 0
	.db #0x00	; 0
	.db #0x00	; 0
	.db #0x33	; 51	'3'
	.db #0x0f	; 15
	.db #0x66	; 102	'f'
	.db #0x1e	; 30
	.db #0xcc	; 204
	.db #0x3c	; 60
	.db #0x99	; 153
	.db #0x78	; 120	'x'
	.db #0x33	; 51	'3'
	.db #0xf0	; 240
	.db #0x66	; 102	'f'
	.db #0xe1	; 225
	.db #0xcc	; 204
	.db #0xc3	; 195
	.db #0x99	; 153
	.db #0x87	; 135
	.db #0xff	; 255
	.db #0xff	; 255
	.db #0x80	; 128
	.db #0xff	; 255
	.db #0xbf	; 191
	.db #0xc0	; 192
	.db #0xa0	; 160
	.db #0xc0	; 192
	.db #0xff	; 255
	.db #0xff	; 255
	.db #0x88	; 136
	.db #0xff	; 255
	.db #0xbb	; 187
	.db #0xcc	; 204
	.db #0xaa	; 170
	.db #0xcc	; 204
	.db #0xff	; 255
	.db #0xff	; 255
	.db #0x01	; 1
	.db #0xff	; 255
	.db #0xfd	; 253
	.db #0x03	; 3
	.db #0x05	; 5
	.db #0x03	; 3
	.db #0xff	; 255
	.db #0xff	; 255
	.db #0x11	; 17
	.db #0xff	; 255
	.db #0xdd	; 221
	.db #0x33	; 51	'3'
	.db #0x55	; 85	'U'
	.db #0x33	; 51	'3'
	.db #0xff	; 255
	.db #0xff	; 255
	.db #0x80	; 128
	.db #0x80	; 128
	.db #0x80	; 128
	.db #0xff	; 255
	.db #0x80	; 128
	.db #0xff	; 255
	.db #0x80	; 128
	.db #0xff	; 255
	.db #0x80	; 128
	.db #0xff	; 255
	.db #0x80	; 128
	.db #0xff	; 255
	.db #0xff	; 255
	.db #0xff	; 255
	.db #0xff	; 255
	.db #0xff	; 255
	.db #0x01	; 1
	.db #0x01	; 1
	.db #0x01	; 1
	.db #0xfd	; 253
	.db #0x01	; 1
	.db #0xfd	; 253
	.db #0x01	; 1
	.db #0xfd	; 253
	.db #0x01	; 1
	.db #0xfd	; 253
	.db #0x01	; 1
	.db #0xfd	; 253
	.db #0xff	; 255
	.db #0xff	; 255
	.db #0xff	; 255
	.db #0xff	; 255
	.db #0xff	; 255
	.db #0xff	; 255
	.db #0xff	; 255
	.db #0xef	; 239
	.db #0xef	; 239
	.db #0xd7	; 215
	.db #0xc7	; 199
	.db #0xbb	; 187
	.db #0xef	; 239
	.db #0xd7	; 215
	.db #0xff	; 255
	.db #0xef	; 239
	.db #0xff	; 255
	.db #0xff	; 255
	.db #0xff	; 255
	.db #0xff	; 255
	.db #0xff	; 255
	.db #0xff	; 255
	.db #0xff	; 255
	.db #0xff	; 255
	.db #0xff	; 255
	.db #0xef	; 239
	.db #0xef	; 239
	.db #0xd7	; 215
	.db #0xff	; 255
	.db #0xef	; 239
	.db #0xff	; 255
	.db #0xff	; 255
	.db #0xff	; 255
	.db #0xff	; 255
	.db #0xff	; 255
	.db #0xff	; 255
	.db #0xff	; 255
	.db #0xff	; 255
	.db #0xff	; 255
	.db #0xff	; 255
	.db #0xff	; 255
	.db #0xff	; 255
	.db #0xff	; 255
	.db #0xff	; 255
	.db #0xff	; 255
	.db #0xff	; 255
	.db #0xff	; 255
	.db #0xff	; 255
	.db #0xff	; 255
	.db #0xff	; 255
	.db #0x00	; 0
	.db #0x00	; 0
	.db #0x00	; 0
	.db #0x00	; 0
	.db #0x3c	; 60
	.db #0x3c	; 60
	.db #0x7a	; 122	'z'
	.db #0x66	; 102	'f'
	.db #0x72	; 114	'r'
	.db #0x4e	; 78	'N'
	.db #0x46	; 70	'F'
	.db #0x7e	; 126
	.db #0x3c	; 60
	.db #0x3c	; 60
	.db #0x00	; 0
	.db #0x00	; 0
__xinit__playerX:
	.db #0x46	; 70	'F'
__xinit__playerY:
	.db #0x69	; 105	'i'
__xinit__enemyX:
	.dw #0x00a0
__xinit__enemyY:
	.db #0x69	; 105	'i'
__xinit__lives:
	.db #0x03	; 3
__xinit__score:
	.dw #0x0000
__xinit__isJumping:
	.db #0x00	; 0
__xinit__velocityY:
	.db #0x00	;  0
__xinit__animCounter:
	.db #0x00	; 0
__xinit__currentEnemyFrame:
	.db #0x00	; 0
	.area _CABS (ABS)
